	.file	"fxinst.cpp"
	.text
	.align	2
	.type	_Z7fx_stopv, %function
_Z7fx_stopv:
	@ args = 0, pretend = 0, frame = 0
	@ frame_needed = 1, uses_anonymous_args = 0
	mov	ip, sp
	stmfd	sp!, {fp, ip, lr, pc}
	sub	fp, ip, #4
	ldr	r3, .L5
	ldr	r3, [r3, #72]
	bic	r2, r3, #32
	ldr	r3, .L5
	str	r2, [r3, #72]
	ldr	r2, .L5
	mov	r3, #0
	str	r3, [r2, #2036]
	ldr	r3, .L5
	ldr	r2, [r3, #2036]
	ldr	r3, .L5
	str	r2, [r3, #2040]
	ldr	r3, .L5
	ldr	r3, [r3, #152]
	add	r3, r3, #55
	ldrb	r3, [r3, #0]	@ zero_extendqisi2
	mov	r3, r3, asl #24
	mov	r3, r3, asr #24
	cmp	r3, #0
	blt	.L2
	ldr	r3, .L5
	ldr	r3, [r3, #72]
	orr	r2, r3, #32768
	ldr	r3, .L5
	str	r2, [r3, #72]
.L2:
	ldr	r2, .L5
	mov	r3, #0
	str	r3, [r2, #68]
	ldr	r2, .L5
	mov	r3, #1
	strb	r3, [r2, #109]
	ldr	r3, .L5
	ldr	r3, [r3, #72]
	bic	r2, r3, #4864
	ldr	r3, .L5
	str	r2, [r3, #72]
	ldr	r2, .L5
	ldr	r3, .L5
	str	r3, [r2, #104]
	ldr	r3, .L5
	ldr	r2, [r3, #104]
	ldr	r3, .L5
	str	r2, [r3, #100]
	ldr	r3, .L5
	ldr	r3, [r3, #60]
	add	r2, r3, #1
	ldr	r3, .L5
	str	r2, [r3, #60]
	ldmfd	sp, {fp, sp, pc}
.L6:
	.align	2
.L5:
	.word	GSU
	.size	_Z7fx_stopv, .-_Z7fx_stopv
	.global	__gxx_personality_sj0
	.align	2
	.type	_Z6fx_nopv, %function
_Z6fx_nopv:
	@ args = 0, pretend = 0, frame = 0
	@ frame_needed = 1, uses_anonymous_args = 0
	mov	ip, sp
	stmfd	sp!, {fp, ip, lr, pc}
	sub	fp, ip, #4
	ldr	r3, .L9
	ldr	r3, [r3, #72]
	bic	r2, r3, #4864
	ldr	r3, .L9
	str	r2, [r3, #72]
	ldr	r2, .L9
	ldr	r3, .L9
	str	r3, [r2, #104]
	ldr	r3, .L9
	ldr	r2, [r3, #104]
	ldr	r3, .L9
	str	r2, [r3, #100]
	ldr	r3, .L9
	ldr	r3, [r3, #60]
	add	r2, r3, #1
	ldr	r3, .L9
	str	r2, [r3, #60]
	ldmfd	sp, {fp, sp, pc}
.L10:
	.align	2
.L9:
	.word	GSU
	.size	_Z6fx_nopv, .-_Z6fx_nopv
	.align	2
	.type	_Z6fx_lsrv, %function
_Z6fx_lsrv:
	@ args = 0, pretend = 0, frame = 4
	@ frame_needed = 1, uses_anonymous_args = 0
	mov	ip, sp
	stmfd	sp!, {fp, ip, lr, pc}
	sub	fp, ip, #4
	sub	sp, sp, #4
	ldr	r3, .L15
	ldr	r3, [r3, #104]
	ldr	r3, [r3, #0]
	and	r2, r3, #1
	ldr	r3, .L15
	str	r2, [r3, #124]
	ldr	r3, .L15
	ldr	r3, [r3, #104]
	ldr	r3, [r3, #0]
	mov	r3, r3, asl #16
	mov	r3, r3, lsr #16
	mov	r3, r3, lsr #1
	mov	r3, r3, asl #16
	mov	r3, r3, lsr #16
	str	r3, [fp, #-16]
	ldr	r3, .L15
	ldr	r3, [r3, #60]
	add	r2, r3, #1
	ldr	r3, .L15
	str	r2, [r3, #60]
	ldr	r3, .L15
	ldr	r2, [r3, #100]
	ldr	r3, [fp, #-16]
	str	r3, [r2, #0]
	ldr	r2, .L15
	ldr	r3, [fp, #-16]
	str	r3, [r2, #116]
	ldr	r2, .L15
	ldr	r3, [fp, #-16]
	str	r3, [r2, #120]
	ldr	r3, .L15
	ldr	r2, [r3, #100]
	ldr	r3, .L15+4
	cmp	r2, r3
	bne	.L12
	ldr	r3, .L15
	ldr	r2, [r3, #468]
	ldr	r3, .L15
	ldr	r3, [r3, #56]
	mov	r3, r3, asl #16
	mov	r3, r3, lsr #16
	add	r3, r2, r3
	ldrb	r3, [r3, #0]	@ zero_extendqisi2
	ldr	r2, .L15
	strb	r3, [r2, #108]
.L12:
	ldr	r3, .L15
	ldr	r3, [r3, #72]
	bic	r2, r3, #4864
	ldr	r3, .L15
	str	r2, [r3, #72]
	ldr	r2, .L15
	ldr	r3, .L15
	str	r3, [r2, #104]
	ldr	r3, .L15
	ldr	r2, [r3, #104]
	ldr	r3, .L15
	str	r2, [r3, #100]
	ldmib	sp, {fp, sp, pc}
.L16:
	.align	2
.L15:
	.word	GSU
	.word	GSU+56
	.size	_Z6fx_lsrv, .-_Z6fx_lsrv
	.align	2
	.type	_Z6fx_rolv, %function
_Z6fx_rolv:
	@ args = 0, pretend = 0, frame = 4
	@ frame_needed = 1, uses_anonymous_args = 0
	mov	ip, sp
	stmfd	sp!, {fp, ip, lr, pc}
	sub	fp, ip, #4
	sub	sp, sp, #4
	ldr	r3, .L21
	ldr	r3, [r3, #104]
	ldr	r3, [r3, #0]
	mov	r3, r3, asl #16
	mov	r3, r3, lsr #16
	mov	r3, r3, asl #1
	mov	r3, r3, asl #16
	mov	r2, r3, lsr #16
	ldr	r3, .L21
	ldr	r3, [r3, #124]
	mov	r3, r3, asl #16
	mov	r3, r3, lsr #16
	add	r3, r2, r3
	mov	r3, r3, asl #16
	mov	r3, r3, lsr #16
	str	r3, [fp, #-16]
	ldr	r3, .L21
	ldr	r3, [r3, #104]
	ldr	r3, [r3, #0]
	mov	r3, r3, lsr #15
	and	r2, r3, #1
	ldr	r3, .L21
	str	r2, [r3, #124]
	ldr	r3, .L21
	ldr	r3, [r3, #60]
	add	r2, r3, #1
	ldr	r3, .L21
	str	r2, [r3, #60]
	ldr	r3, .L21
	ldr	r2, [r3, #100]
	ldr	r3, [fp, #-16]
	str	r3, [r2, #0]
	ldr	r2, .L21
	ldr	r3, [fp, #-16]
	str	r3, [r2, #116]
	ldr	r2, .L21
	ldr	r3, [fp, #-16]
	str	r3, [r2, #120]
	ldr	r3, .L21
	ldr	r2, [r3, #100]
	ldr	r3, .L21+4
	cmp	r2, r3
	bne	.L18
	ldr	r3, .L21
	ldr	r2, [r3, #468]
	ldr	r3, .L21
	ldr	r3, [r3, #56]
	mov	r3, r3, asl #16
	mov	r3, r3, lsr #16
	add	r3, r2, r3
	ldrb	r3, [r3, #0]	@ zero_extendqisi2
	ldr	r2, .L21
	strb	r3, [r2, #108]
.L18:
	ldr	r3, .L21
	ldr	r3, [r3, #72]
	bic	r2, r3, #4864
	ldr	r3, .L21
	str	r2, [r3, #72]
	ldr	r2, .L21
	ldr	r3, .L21
	str	r3, [r2, #104]
	ldr	r3, .L21
	ldr	r2, [r3, #104]
	ldr	r3, .L21
	str	r2, [r3, #100]
	ldmib	sp, {fp, sp, pc}
.L22:
	.align	2
.L21:
	.word	GSU
	.word	GSU+56
	.size	_Z6fx_rolv, .-_Z6fx_rolv
	.align	2
	.type	_Z6fx_brav, %function
_Z6fx_brav:
	@ args = 0, pretend = 0, frame = 4
	@ frame_needed = 1, uses_anonymous_args = 0
	mov	ip, sp
	stmfd	sp!, {fp, ip, lr, pc}
	sub	fp, ip, #4
	sub	sp, sp, #4
	ldr	r3, .L25
	ldrb	r3, [r3, #109]
	strb	r3, [fp, #-13]
	ldr	r3, .L25
	ldr	r3, [r3, #60]
	add	r2, r3, #1
	ldr	r3, .L25
	str	r2, [r3, #60]
	ldr	r3, .L25
	ldr	r2, [r3, #472]
	ldr	r3, .L25
	ldr	r3, [r3, #60]
	mov	r3, r3, asl #16
	mov	r3, r3, lsr #16
	add	r3, r2, r3
	ldrb	r3, [r3, #0]	@ zero_extendqisi2
	ldr	r2, .L25
	strb	r3, [r2, #109]
	ldr	r3, .L25
	ldr	r2, [r3, #60]
	ldrb	r3, [fp, #-13]	@ zero_extendqisi2
	mov	r3, r3, asl #24
	mov	r3, r3, asr #24
	add	r2, r2, r3
	ldr	r3, .L25
	str	r2, [r3, #60]
	ldmib	sp, {fp, sp, pc}
.L26:
	.align	2
.L25:
	.word	GSU
	.size	_Z6fx_brav, .-_Z6fx_brav
	.align	2
	.type	_Z6fx_bltv, %function
_Z6fx_bltv:
	@ args = 0, pretend = 0, frame = 12
	@ frame_needed = 1, uses_anonymous_args = 0
	mov	ip, sp
	stmfd	sp!, {fp, ip, lr, pc}
	sub	fp, ip, #4
	sub	sp, sp, #12
	ldr	r3, .L36
	ldrb	r3, [r3, #109]
	strb	r3, [fp, #-13]
	ldr	r3, .L36
	ldr	r3, [r3, #60]
	add	r2, r3, #1
	ldr	r3, .L36
	str	r2, [r3, #60]
	ldr	r3, .L36
	ldr	r2, [r3, #472]
	ldr	r3, .L36
	ldr	r3, [r3, #60]
	mov	r3, r3, asl #16
	mov	r3, r3, lsr #16
	add	r3, r2, r3
	ldrb	r3, [r3, #0]	@ zero_extendqisi2
	ldr	r2, .L36
	strb	r3, [r2, #109]
	ldr	r3, .L36
	ldr	r3, [r3, #116]
	and	r3, r3, #32768
	cmp	r3, #0
	moveq	r2, #0
	movne	r2, #1
	str	r2, [fp, #-24]
	ldr	r3, .L36
	ldr	r2, [r3, #128]
	ldr	r3, .L36+4
	cmp	r2, r3
	bgt	.L28
	ldr	r3, .L36
	ldr	r3, [r3, #128]
	cmn	r3, #32768
	bge	.L30
.L28:
	mov	r3, #1
	str	r3, [fp, #-20]
	b	.L31
.L30:
	mov	r2, #0
	str	r2, [fp, #-20]
.L31:
	ldr	r3, [fp, #-20]
	ldr	r2, [fp, #-24]
	cmp	r2, r3
	beq	.L32
	ldr	r3, .L36
	ldr	r2, [r3, #60]
	ldrb	r3, [fp, #-13]	@ zero_extendqisi2
	mov	r3, r3, asl #24
	mov	r3, r3, asr #24
	add	r2, r2, r3
	ldr	r3, .L36
	str	r2, [r3, #60]
	b	.L35
.L32:
	ldr	r3, .L36
	ldr	r3, [r3, #60]
	add	r2, r3, #1
	ldr	r3, .L36
	str	r2, [r3, #60]
.L35:
	sub	sp, fp, #12
	ldmfd	sp, {fp, sp, pc}
.L37:
	.align	2
.L36:
	.word	GSU
	.word	32767
	.size	_Z6fx_bltv, .-_Z6fx_bltv
	.align	2
	.type	_Z6fx_bgev, %function
_Z6fx_bgev:
	@ args = 0, pretend = 0, frame = 12
	@ frame_needed = 1, uses_anonymous_args = 0
	mov	ip, sp
	stmfd	sp!, {fp, ip, lr, pc}
	sub	fp, ip, #4
	sub	sp, sp, #12
	ldr	r3, .L47
	ldrb	r3, [r3, #109]
	strb	r3, [fp, #-13]
	ldr	r3, .L47
	ldr	r3, [r3, #60]
	add	r2, r3, #1
	ldr	r3, .L47
	str	r2, [r3, #60]
	ldr	r3, .L47
	ldr	r2, [r3, #472]
	ldr	r3, .L47
	ldr	r3, [r3, #60]
	mov	r3, r3, asl #16
	mov	r3, r3, lsr #16
	add	r3, r2, r3
	ldrb	r3, [r3, #0]	@ zero_extendqisi2
	ldr	r2, .L47
	strb	r3, [r2, #109]
	ldr	r3, .L47
	ldr	r3, [r3, #116]
	and	r3, r3, #32768
	cmp	r3, #0
	moveq	r2, #0
	movne	r2, #1
	str	r2, [fp, #-24]
	ldr	r3, .L47
	ldr	r2, [r3, #128]
	ldr	r3, .L47+4
	cmp	r2, r3
	bgt	.L39
	ldr	r3, .L47
	ldr	r3, [r3, #128]
	cmn	r3, #32768
	bge	.L41
.L39:
	mov	r3, #1
	str	r3, [fp, #-20]
	b	.L42
.L41:
	mov	r2, #0
	str	r2, [fp, #-20]
.L42:
	ldr	r3, [fp, #-20]
	ldr	r2, [fp, #-24]
	cmp	r2, r3
	bne	.L43
	ldr	r3, .L47
	ldr	r2, [r3, #60]
	ldrb	r3, [fp, #-13]	@ zero_extendqisi2
	mov	r3, r3, asl #24
	mov	r3, r3, asr #24
	add	r2, r2, r3
	ldr	r3, .L47
	str	r2, [r3, #60]
	b	.L46
.L43:
	ldr	r3, .L47
	ldr	r3, [r3, #60]
	add	r2, r3, #1
	ldr	r3, .L47
	str	r2, [r3, #60]
.L46:
	sub	sp, fp, #12
	ldmfd	sp, {fp, sp, pc}
.L48:
	.align	2
.L47:
	.word	GSU
	.word	32767
	.size	_Z6fx_bgev, .-_Z6fx_bgev
	.align	2
	.type	_Z6fx_bnev, %function
_Z6fx_bnev:
	@ args = 0, pretend = 0, frame = 4
	@ frame_needed = 1, uses_anonymous_args = 0
	mov	ip, sp
	stmfd	sp!, {fp, ip, lr, pc}
	sub	fp, ip, #4
	sub	sp, sp, #4
	ldr	r3, .L54
	ldrb	r3, [r3, #109]
	strb	r3, [fp, #-13]
	ldr	r3, .L54
	ldr	r3, [r3, #60]
	add	r2, r3, #1
	ldr	r3, .L54
	str	r2, [r3, #60]
	ldr	r3, .L54
	ldr	r2, [r3, #472]
	ldr	r3, .L54
	ldr	r3, [r3, #60]
	mov	r3, r3, asl #16
	mov	r3, r3, lsr #16
	add	r3, r2, r3
	ldrb	r3, [r3, #0]	@ zero_extendqisi2
	ldr	r2, .L54
	strb	r3, [r2, #109]
	ldr	r3, .L54
	ldr	r3, [r3, #120]
	mov	r3, r3, asl #16
	mov	r3, r3, lsr #16
	cmp	r3, #0
	beq	.L50
	ldr	r3, .L54
	ldr	r2, [r3, #60]
	ldrb	r3, [fp, #-13]	@ zero_extendqisi2
	mov	r3, r3, asl #24
	mov	r3, r3, asr #24
	add	r2, r2, r3
	ldr	r3, .L54
	str	r2, [r3, #60]
	b	.L53
.L50:
	ldr	r3, .L54
	ldr	r3, [r3, #60]
	add	r2, r3, #1
	ldr	r3, .L54
	str	r2, [r3, #60]
.L53:
	ldmib	sp, {fp, sp, pc}
.L55:
	.align	2
.L54:
	.word	GSU
	.size	_Z6fx_bnev, .-_Z6fx_bnev
	.align	2
	.type	_Z6fx_beqv, %function
_Z6fx_beqv:
	@ args = 0, pretend = 0, frame = 4
	@ frame_needed = 1, uses_anonymous_args = 0
	mov	ip, sp
	stmfd	sp!, {fp, ip, lr, pc}
	sub	fp, ip, #4
	sub	sp, sp, #4
	ldr	r3, .L61
	ldrb	r3, [r3, #109]
	strb	r3, [fp, #-13]
	ldr	r3, .L61
	ldr	r3, [r3, #60]
	add	r2, r3, #1
	ldr	r3, .L61
	str	r2, [r3, #60]
	ldr	r3, .L61
	ldr	r2, [r3, #472]
	ldr	r3, .L61
	ldr	r3, [r3, #60]
	mov	r3, r3, asl #16
	mov	r3, r3, lsr #16
	add	r3, r2, r3
	ldrb	r3, [r3, #0]	@ zero_extendqisi2
	ldr	r2, .L61
	strb	r3, [r2, #109]
	ldr	r3, .L61
	ldr	r3, [r3, #120]
	mov	r3, r3, asl #16
	mov	r3, r3, lsr #16
	cmp	r3, #0
	bne	.L57
	ldr	r3, .L61
	ldr	r2, [r3, #60]
	ldrb	r3, [fp, #-13]	@ zero_extendqisi2
	mov	r3, r3, asl #24
	mov	r3, r3, asr #24
	add	r2, r2, r3
	ldr	r3, .L61
	str	r2, [r3, #60]
	b	.L60
.L57:
	ldr	r3, .L61
	ldr	r3, [r3, #60]
	add	r2, r3, #1
	ldr	r3, .L61
	str	r2, [r3, #60]
.L60:
	ldmib	sp, {fp, sp, pc}
.L62:
	.align	2
.L61:
	.word	GSU
	.size	_Z6fx_beqv, .-_Z6fx_beqv
	.align	2
	.type	_Z6fx_bplv, %function
_Z6fx_bplv:
	@ args = 0, pretend = 0, frame = 4
	@ frame_needed = 1, uses_anonymous_args = 0
	mov	ip, sp
	stmfd	sp!, {fp, ip, lr, pc}
	sub	fp, ip, #4
	sub	sp, sp, #4
	ldr	r3, .L68
	ldrb	r3, [r3, #109]
	strb	r3, [fp, #-13]
	ldr	r3, .L68
	ldr	r3, [r3, #60]
	add	r2, r3, #1
	ldr	r3, .L68
	str	r2, [r3, #60]
	ldr	r3, .L68
	ldr	r2, [r3, #472]
	ldr	r3, .L68
	ldr	r3, [r3, #60]
	mov	r3, r3, asl #16
	mov	r3, r3, lsr #16
	add	r3, r2, r3
	ldrb	r3, [r3, #0]	@ zero_extendqisi2
	ldr	r2, .L68
	strb	r3, [r2, #109]
	ldr	r3, .L68
	ldr	r3, [r3, #116]
	and	r3, r3, #32768
	cmp	r3, #0
	bne	.L64
	ldr	r3, .L68
	ldr	r2, [r3, #60]
	ldrb	r3, [fp, #-13]	@ zero_extendqisi2
	mov	r3, r3, asl #24
	mov	r3, r3, asr #24
	add	r2, r2, r3
	ldr	r3, .L68
	str	r2, [r3, #60]
	b	.L67
.L64:
	ldr	r3, .L68
	ldr	r3, [r3, #60]
	add	r2, r3, #1
	ldr	r3, .L68
	str	r2, [r3, #60]
.L67:
	ldmib	sp, {fp, sp, pc}
.L69:
	.align	2
.L68:
	.word	GSU
	.size	_Z6fx_bplv, .-_Z6fx_bplv
	.align	2
	.type	_Z6fx_bmiv, %function
_Z6fx_bmiv:
	@ args = 0, pretend = 0, frame = 4
	@ frame_needed = 1, uses_anonymous_args = 0
	mov	ip, sp
	stmfd	sp!, {fp, ip, lr, pc}
	sub	fp, ip, #4
	sub	sp, sp, #4
	ldr	r3, .L75
	ldrb	r3, [r3, #109]
	strb	r3, [fp, #-13]
	ldr	r3, .L75
	ldr	r3, [r3, #60]
	add	r2, r3, #1
	ldr	r3, .L75
	str	r2, [r3, #60]
	ldr	r3, .L75
	ldr	r2, [r3, #472]
	ldr	r3, .L75
	ldr	r3, [r3, #60]
	mov	r3, r3, asl #16
	mov	r3, r3, lsr #16
	add	r3, r2, r3
	ldrb	r3, [r3, #0]	@ zero_extendqisi2
	ldr	r2, .L75
	strb	r3, [r2, #109]
	ldr	r3, .L75
	ldr	r3, [r3, #116]
	and	r3, r3, #32768
	cmp	r3, #0
	beq	.L71
	ldr	r3, .L75
	ldr	r2, [r3, #60]
	ldrb	r3, [fp, #-13]	@ zero_extendqisi2
	mov	r3, r3, asl #24
	mov	r3, r3, asr #24
	add	r2, r2, r3
	ldr	r3, .L75
	str	r2, [r3, #60]
	b	.L74
.L71:
	ldr	r3, .L75
	ldr	r3, [r3, #60]
	add	r2, r3, #1
	ldr	r3, .L75
	str	r2, [r3, #60]
.L74:
	ldmib	sp, {fp, sp, pc}
.L76:
	.align	2
.L75:
	.word	GSU
	.size	_Z6fx_bmiv, .-_Z6fx_bmiv
	.align	2
	.type	_Z6fx_bccv, %function
_Z6fx_bccv:
	@ args = 0, pretend = 0, frame = 4
	@ frame_needed = 1, uses_anonymous_args = 0
	mov	ip, sp
	stmfd	sp!, {fp, ip, lr, pc}
	sub	fp, ip, #4
	sub	sp, sp, #4
	ldr	r3, .L82
	ldrb	r3, [r3, #109]
	strb	r3, [fp, #-13]
	ldr	r3, .L82
	ldr	r3, [r3, #60]
	add	r2, r3, #1
	ldr	r3, .L82
	str	r2, [r3, #60]
	ldr	r3, .L82
	ldr	r2, [r3, #472]
	ldr	r3, .L82
	ldr	r3, [r3, #60]
	mov	r3, r3, asl #16
	mov	r3, r3, lsr #16
	add	r3, r2, r3
	ldrb	r3, [r3, #0]	@ zero_extendqisi2
	ldr	r2, .L82
	strb	r3, [r2, #109]
	ldr	r3, .L82
	ldr	r3, [r3, #124]
	and	r3, r3, #1
	and	r3, r3, #255
	eor	r3, r3, #1
	and	r3, r3, #255
	cmp	r3, #0
	beq	.L78
	ldr	r3, .L82
	ldr	r2, [r3, #60]
	ldrb	r3, [fp, #-13]	@ zero_extendqisi2
	mov	r3, r3, asl #24
	mov	r3, r3, asr #24
	add	r2, r2, r3
	ldr	r3, .L82
	str	r2, [r3, #60]
	b	.L81
.L78:
	ldr	r3, .L82
	ldr	r3, [r3, #60]
	add	r2, r3, #1
	ldr	r3, .L82
	str	r2, [r3, #60]
.L81:
	ldmib	sp, {fp, sp, pc}
.L83:
	.align	2
.L82:
	.word	GSU
	.size	_Z6fx_bccv, .-_Z6fx_bccv
	.align	2
	.type	_Z6fx_bcsv, %function
_Z6fx_bcsv:
	@ args = 0, pretend = 0, frame = 4
	@ frame_needed = 1, uses_anonymous_args = 0
	mov	ip, sp
	stmfd	sp!, {fp, ip, lr, pc}
	sub	fp, ip, #4
	sub	sp, sp, #4
	ldr	r3, .L89
	ldrb	r3, [r3, #109]
	strb	r3, [fp, #-13]
	ldr	r3, .L89
	ldr	r3, [r3, #60]
	add	r2, r3, #1
	ldr	r3, .L89
	str	r2, [r3, #60]
	ldr	r3, .L89
	ldr	r2, [r3, #472]
	ldr	r3, .L89
	ldr	r3, [r3, #60]
	mov	r3, r3, asl #16
	mov	r3, r3, lsr #16
	add	r3, r2, r3
	ldrb	r3, [r3, #0]	@ zero_extendqisi2
	ldr	r2, .L89
	strb	r3, [r2, #109]
	ldr	r3, .L89
	ldr	r3, [r3, #124]
	and	r3, r3, #1
	and	r3, r3, #255
	cmp	r3, #0
	beq	.L85
	ldr	r3, .L89
	ldr	r2, [r3, #60]
	ldrb	r3, [fp, #-13]	@ zero_extendqisi2
	mov	r3, r3, asl #24
	mov	r3, r3, asr #24
	add	r2, r2, r3
	ldr	r3, .L89
	str	r2, [r3, #60]
	b	.L88
.L85:
	ldr	r3, .L89
	ldr	r3, [r3, #60]
	add	r2, r3, #1
	ldr	r3, .L89
	str	r2, [r3, #60]
.L88:
	ldmib	sp, {fp, sp, pc}
.L90:
	.align	2
.L89:
	.word	GSU
	.size	_Z6fx_bcsv, .-_Z6fx_bcsv
	.align	2
	.type	_Z6fx_bvcv, %function
_Z6fx_bvcv:
	@ args = 0, pretend = 0, frame = 4
	@ frame_needed = 1, uses_anonymous_args = 0
	mov	ip, sp
	stmfd	sp!, {fp, ip, lr, pc}
	sub	fp, ip, #4
	sub	sp, sp, #4
	ldr	r3, .L97
	ldrb	r3, [r3, #109]
	strb	r3, [fp, #-13]
	ldr	r3, .L97
	ldr	r3, [r3, #60]
	add	r2, r3, #1
	ldr	r3, .L97
	str	r2, [r3, #60]
	ldr	r3, .L97
	ldr	r2, [r3, #472]
	ldr	r3, .L97
	ldr	r3, [r3, #60]
	mov	r3, r3, asl #16
	mov	r3, r3, lsr #16
	add	r3, r2, r3
	ldrb	r3, [r3, #0]	@ zero_extendqisi2
	ldr	r2, .L97
	strb	r3, [r2, #109]
	ldr	r3, .L97
	ldr	r2, [r3, #128]
	ldr	r3, .L97+4
	cmp	r2, r3
	bgt	.L92
	ldr	r3, .L97
	ldr	r3, [r3, #128]
	cmn	r3, #32768
	blt	.L92
	ldr	r3, .L97
	ldr	r2, [r3, #60]
	ldrb	r3, [fp, #-13]	@ zero_extendqisi2
	mov	r3, r3, asl #24
	mov	r3, r3, asr #24
	add	r2, r2, r3
	ldr	r3, .L97
	str	r2, [r3, #60]
	b	.L96
.L92:
	ldr	r3, .L97
	ldr	r3, [r3, #60]
	add	r2, r3, #1
	ldr	r3, .L97
	str	r2, [r3, #60]
.L96:
	ldmib	sp, {fp, sp, pc}
.L98:
	.align	2
.L97:
	.word	GSU
	.word	32767
	.size	_Z6fx_bvcv, .-_Z6fx_bvcv
	.align	2
	.type	_Z6fx_bvsv, %function
_Z6fx_bvsv:
	@ args = 0, pretend = 0, frame = 4
	@ frame_needed = 1, uses_anonymous_args = 0
	mov	ip, sp
	stmfd	sp!, {fp, ip, lr, pc}
	sub	fp, ip, #4
	sub	sp, sp, #4
	ldr	r3, .L105
	ldrb	r3, [r3, #109]
	strb	r3, [fp, #-13]
	ldr	r3, .L105
	ldr	r3, [r3, #60]
	add	r2, r3, #1
	ldr	r3, .L105
	str	r2, [r3, #60]
	ldr	r3, .L105
	ldr	r2, [r3, #472]
	ldr	r3, .L105
	ldr	r3, [r3, #60]
	mov	r3, r3, asl #16
	mov	r3, r3, lsr #16
	add	r3, r2, r3
	ldrb	r3, [r3, #0]	@ zero_extendqisi2
	ldr	r2, .L105
	strb	r3, [r2, #109]
	ldr	r3, .L105
	ldr	r2, [r3, #128]
	ldr	r3, .L105+4
	cmp	r2, r3
	bgt	.L100
	ldr	r3, .L105
	ldr	r3, [r3, #128]
	cmn	r3, #32768
	bge	.L102
.L100:
	ldr	r3, .L105
	ldr	r2, [r3, #60]
	ldrb	r3, [fp, #-13]	@ zero_extendqisi2
	mov	r3, r3, asl #24
	mov	r3, r3, asr #24
	add	r2, r2, r3
	ldr	r3, .L105
	str	r2, [r3, #60]
	b	.L104
.L102:
	ldr	r3, .L105
	ldr	r3, [r3, #60]
	add	r2, r3, #1
	ldr	r3, .L105
	str	r2, [r3, #60]
.L104:
	ldmib	sp, {fp, sp, pc}
.L106:
	.align	2
.L105:
	.word	GSU
	.word	32767
	.size	_Z6fx_bvsv, .-_Z6fx_bvsv
	.align	2
	.type	_Z8fx_to_r0v, %function
_Z8fx_to_r0v:
	@ args = 0, pretend = 0, frame = 0
	@ frame_needed = 1, uses_anonymous_args = 0
	mov	ip, sp
	stmfd	sp!, {fp, ip, lr, pc}
	sub	fp, ip, #4
	ldr	r3, .L112
	ldr	r3, [r3, #72]
	and	r3, r3, #4096
	cmp	r3, #0
	beq	.L108
	ldr	r3, .L112
	ldr	r3, [r3, #104]
	ldr	r2, [r3, #0]
	ldr	r3, .L112
	str	r2, [r3, #0]
	ldr	r3, .L112
	ldr	r3, [r3, #72]
	bic	r2, r3, #4864
	ldr	r3, .L112
	str	r2, [r3, #72]
	ldr	r2, .L112
	ldr	r3, .L112
	str	r3, [r2, #104]
	ldr	r3, .L112
	ldr	r2, [r3, #104]
	ldr	r3, .L112
	str	r2, [r3, #100]
	b	.L110
.L108:
	ldr	r2, .L112
	ldr	r3, .L112
	str	r3, [r2, #100]
.L110:
	ldr	r3, .L112
	ldr	r3, [r3, #60]
	add	r2, r3, #1
	ldr	r3, .L112
	str	r2, [r3, #60]
	ldmfd	sp, {fp, sp, pc}
.L113:
	.align	2
.L112:
	.word	GSU
	.size	_Z8fx_to_r0v, .-_Z8fx_to_r0v
	.align	2
	.type	_Z8fx_to_r1v, %function
_Z8fx_to_r1v:
	@ args = 0, pretend = 0, frame = 0
	@ frame_needed = 1, uses_anonymous_args = 0
	mov	ip, sp
	stmfd	sp!, {fp, ip, lr, pc}
	sub	fp, ip, #4
	ldr	r3, .L119
	ldr	r3, [r3, #72]
	and	r3, r3, #4096
	cmp	r3, #0
	beq	.L115
	ldr	r3, .L119
	ldr	r3, [r3, #104]
	ldr	r2, [r3, #0]
	ldr	r3, .L119
	str	r2, [r3, #4]
	ldr	r3, .L119
	ldr	r3, [r3, #72]
	bic	r2, r3, #4864
	ldr	r3, .L119
	str	r2, [r3, #72]
	ldr	r2, .L119
	ldr	r3, .L119
	str	r3, [r2, #104]
	ldr	r3, .L119
	ldr	r2, [r3, #104]
	ldr	r3, .L119
	str	r2, [r3, #100]
	b	.L117
.L115:
	ldr	r2, .L119
	ldr	r3, .L119+4
	str	r3, [r2, #100]
.L117:
	ldr	r3, .L119
	ldr	r3, [r3, #60]
	add	r2, r3, #1
	ldr	r3, .L119
	str	r2, [r3, #60]
	ldmfd	sp, {fp, sp, pc}
.L120:
	.align	2
.L119:
	.word	GSU
	.word	GSU+4
	.size	_Z8fx_to_r1v, .-_Z8fx_to_r1v
	.align	2
	.type	_Z8fx_to_r2v, %function
_Z8fx_to_r2v:
	@ args = 0, pretend = 0, frame = 0
	@ frame_needed = 1, uses_anonymous_args = 0
	mov	ip, sp
	stmfd	sp!, {fp, ip, lr, pc}
	sub	fp, ip, #4
	ldr	r3, .L126
	ldr	r3, [r3, #72]
	and	r3, r3, #4096
	cmp	r3, #0
	beq	.L122
	ldr	r3, .L126
	ldr	r3, [r3, #104]
	ldr	r2, [r3, #0]
	ldr	r3, .L126
	str	r2, [r3, #8]
	ldr	r3, .L126
	ldr	r3, [r3, #72]
	bic	r2, r3, #4864
	ldr	r3, .L126
	str	r2, [r3, #72]
	ldr	r2, .L126
	ldr	r3, .L126
	str	r3, [r2, #104]
	ldr	r3, .L126
	ldr	r2, [r3, #104]
	ldr	r3, .L126
	str	r2, [r3, #100]
	b	.L124
.L122:
	ldr	r2, .L126
	ldr	r3, .L126+4
	str	r3, [r2, #100]
.L124:
	ldr	r3, .L126
	ldr	r3, [r3, #60]
	add	r2, r3, #1
	ldr	r3, .L126
	str	r2, [r3, #60]
	ldmfd	sp, {fp, sp, pc}
.L127:
	.align	2
.L126:
	.word	GSU
	.word	GSU+8
	.size	_Z8fx_to_r2v, .-_Z8fx_to_r2v
	.align	2
	.type	_Z8fx_to_r3v, %function
_Z8fx_to_r3v:
	@ args = 0, pretend = 0, frame = 0
	@ frame_needed = 1, uses_anonymous_args = 0
	mov	ip, sp
	stmfd	sp!, {fp, ip, lr, pc}
	sub	fp, ip, #4
	ldr	r3, .L133
	ldr	r3, [r3, #72]
	and	r3, r3, #4096
	cmp	r3, #0
	beq	.L129
	ldr	r3, .L133
	ldr	r3, [r3, #104]
	ldr	r2, [r3, #0]
	ldr	r3, .L133
	str	r2, [r3, #12]
	ldr	r3, .L133
	ldr	r3, [r3, #72]
	bic	r2, r3, #4864
	ldr	r3, .L133
	str	r2, [r3, #72]
	ldr	r2, .L133
	ldr	r3, .L133
	str	r3, [r2, #104]
	ldr	r3, .L133
	ldr	r2, [r3, #104]
	ldr	r3, .L133
	str	r2, [r3, #100]
	b	.L131
.L129:
	ldr	r2, .L133
	ldr	r3, .L133+4
	str	r3, [r2, #100]
.L131:
	ldr	r3, .L133
	ldr	r3, [r3, #60]
	add	r2, r3, #1
	ldr	r3, .L133
	str	r2, [r3, #60]
	ldmfd	sp, {fp, sp, pc}
.L134:
	.align	2
.L133:
	.word	GSU
	.word	GSU+12
	.size	_Z8fx_to_r3v, .-_Z8fx_to_r3v
	.align	2
	.type	_Z8fx_to_r4v, %function
_Z8fx_to_r4v:
	@ args = 0, pretend = 0, frame = 0
	@ frame_needed = 1, uses_anonymous_args = 0
	mov	ip, sp
	stmfd	sp!, {fp, ip, lr, pc}
	sub	fp, ip, #4
	ldr	r3, .L140
	ldr	r3, [r3, #72]
	and	r3, r3, #4096
	cmp	r3, #0
	beq	.L136
	ldr	r3, .L140
	ldr	r3, [r3, #104]
	ldr	r2, [r3, #0]
	ldr	r3, .L140
	str	r2, [r3, #16]
	ldr	r3, .L140
	ldr	r3, [r3, #72]
	bic	r2, r3, #4864
	ldr	r3, .L140
	str	r2, [r3, #72]
	ldr	r2, .L140
	ldr	r3, .L140
	str	r3, [r2, #104]
	ldr	r3, .L140
	ldr	r2, [r3, #104]
	ldr	r3, .L140
	str	r2, [r3, #100]
	b	.L138
.L136:
	ldr	r2, .L140
	ldr	r3, .L140+4
	str	r3, [r2, #100]
.L138:
	ldr	r3, .L140
	ldr	r3, [r3, #60]
	add	r2, r3, #1
	ldr	r3, .L140
	str	r2, [r3, #60]
	ldmfd	sp, {fp, sp, pc}
.L141:
	.align	2
.L140:
	.word	GSU
	.word	GSU+16
	.size	_Z8fx_to_r4v, .-_Z8fx_to_r4v
	.align	2
	.type	_Z8fx_to_r5v, %function
_Z8fx_to_r5v:
	@ args = 0, pretend = 0, frame = 0
	@ frame_needed = 1, uses_anonymous_args = 0
	mov	ip, sp
	stmfd	sp!, {fp, ip, lr, pc}
	sub	fp, ip, #4
	ldr	r3, .L147
	ldr	r3, [r3, #72]
	and	r3, r3, #4096
	cmp	r3, #0
	beq	.L143
	ldr	r3, .L147
	ldr	r3, [r3, #104]
	ldr	r2, [r3, #0]
	ldr	r3, .L147
	str	r2, [r3, #20]
	ldr	r3, .L147
	ldr	r3, [r3, #72]
	bic	r2, r3, #4864
	ldr	r3, .L147
	str	r2, [r3, #72]
	ldr	r2, .L147
	ldr	r3, .L147
	str	r3, [r2, #104]
	ldr	r3, .L147
	ldr	r2, [r3, #104]
	ldr	r3, .L147
	str	r2, [r3, #100]
	b	.L145
.L143:
	ldr	r2, .L147
	ldr	r3, .L147+4
	str	r3, [r2, #100]
.L145:
	ldr	r3, .L147
	ldr	r3, [r3, #60]
	add	r2, r3, #1
	ldr	r3, .L147
	str	r2, [r3, #60]
	ldmfd	sp, {fp, sp, pc}
.L148:
	.align	2
.L147:
	.word	GSU
	.word	GSU+20
	.size	_Z8fx_to_r5v, .-_Z8fx_to_r5v
	.align	2
	.type	_Z8fx_to_r6v, %function
_Z8fx_to_r6v:
	@ args = 0, pretend = 0, frame = 0
	@ frame_needed = 1, uses_anonymous_args = 0
	mov	ip, sp
	stmfd	sp!, {fp, ip, lr, pc}
	sub	fp, ip, #4
	ldr	r3, .L154
	ldr	r3, [r3, #72]
	and	r3, r3, #4096
	cmp	r3, #0
	beq	.L150
	ldr	r3, .L154
	ldr	r3, [r3, #104]
	ldr	r2, [r3, #0]
	ldr	r3, .L154
	str	r2, [r3, #24]
	ldr	r3, .L154
	ldr	r3, [r3, #72]
	bic	r2, r3, #4864
	ldr	r3, .L154
	str	r2, [r3, #72]
	ldr	r2, .L154
	ldr	r3, .L154
	str	r3, [r2, #104]
	ldr	r3, .L154
	ldr	r2, [r3, #104]
	ldr	r3, .L154
	str	r2, [r3, #100]
	b	.L152
.L150:
	ldr	r2, .L154
	ldr	r3, .L154+4
	str	r3, [r2, #100]
.L152:
	ldr	r3, .L154
	ldr	r3, [r3, #60]
	add	r2, r3, #1
	ldr	r3, .L154
	str	r2, [r3, #60]
	ldmfd	sp, {fp, sp, pc}
.L155:
	.align	2
.L154:
	.word	GSU
	.word	GSU+24
	.size	_Z8fx_to_r6v, .-_Z8fx_to_r6v
	.align	2
	.type	_Z8fx_to_r7v, %function
_Z8fx_to_r7v:
	@ args = 0, pretend = 0, frame = 0
	@ frame_needed = 1, uses_anonymous_args = 0
	mov	ip, sp
	stmfd	sp!, {fp, ip, lr, pc}
	sub	fp, ip, #4
	ldr	r3, .L161
	ldr	r3, [r3, #72]
	and	r3, r3, #4096
	cmp	r3, #0
	beq	.L157
	ldr	r3, .L161
	ldr	r3, [r3, #104]
	ldr	r2, [r3, #0]
	ldr	r3, .L161
	str	r2, [r3, #28]
	ldr	r3, .L161
	ldr	r3, [r3, #72]
	bic	r2, r3, #4864
	ldr	r3, .L161
	str	r2, [r3, #72]
	ldr	r2, .L161
	ldr	r3, .L161
	str	r3, [r2, #104]
	ldr	r3, .L161
	ldr	r2, [r3, #104]
	ldr	r3, .L161
	str	r2, [r3, #100]
	b	.L159
.L157:
	ldr	r2, .L161
	ldr	r3, .L161+4
	str	r3, [r2, #100]
.L159:
	ldr	r3, .L161
	ldr	r3, [r3, #60]
	add	r2, r3, #1
	ldr	r3, .L161
	str	r2, [r3, #60]
	ldmfd	sp, {fp, sp, pc}
.L162:
	.align	2
.L161:
	.word	GSU
	.word	GSU+28
	.size	_Z8fx_to_r7v, .-_Z8fx_to_r7v
	.align	2
	.type	_Z8fx_to_r8v, %function
_Z8fx_to_r8v:
	@ args = 0, pretend = 0, frame = 0
	@ frame_needed = 1, uses_anonymous_args = 0
	mov	ip, sp
	stmfd	sp!, {fp, ip, lr, pc}
	sub	fp, ip, #4
	ldr	r3, .L168
	ldr	r3, [r3, #72]
	and	r3, r3, #4096
	cmp	r3, #0
	beq	.L164
	ldr	r3, .L168
	ldr	r3, [r3, #104]
	ldr	r2, [r3, #0]
	ldr	r3, .L168
	str	r2, [r3, #32]
	ldr	r3, .L168
	ldr	r3, [r3, #72]
	bic	r2, r3, #4864
	ldr	r3, .L168
	str	r2, [r3, #72]
	ldr	r2, .L168
	ldr	r3, .L168
	str	r3, [r2, #104]
	ldr	r3, .L168
	ldr	r2, [r3, #104]
	ldr	r3, .L168
	str	r2, [r3, #100]
	b	.L166
.L164:
	ldr	r2, .L168
	ldr	r3, .L168+4
	str	r3, [r2, #100]
.L166:
	ldr	r3, .L168
	ldr	r3, [r3, #60]
	add	r2, r3, #1
	ldr	r3, .L168
	str	r2, [r3, #60]
	ldmfd	sp, {fp, sp, pc}
.L169:
	.align	2
.L168:
	.word	GSU
	.word	GSU+32
	.size	_Z8fx_to_r8v, .-_Z8fx_to_r8v
	.align	2
	.type	_Z8fx_to_r9v, %function
_Z8fx_to_r9v:
	@ args = 0, pretend = 0, frame = 0
	@ frame_needed = 1, uses_anonymous_args = 0
	mov	ip, sp
	stmfd	sp!, {fp, ip, lr, pc}
	sub	fp, ip, #4
	ldr	r3, .L175
	ldr	r3, [r3, #72]
	and	r3, r3, #4096
	cmp	r3, #0
	beq	.L171
	ldr	r3, .L175
	ldr	r3, [r3, #104]
	ldr	r2, [r3, #0]
	ldr	r3, .L175
	str	r2, [r3, #36]
	ldr	r3, .L175
	ldr	r3, [r3, #72]
	bic	r2, r3, #4864
	ldr	r3, .L175
	str	r2, [r3, #72]
	ldr	r2, .L175
	ldr	r3, .L175
	str	r3, [r2, #104]
	ldr	r3, .L175
	ldr	r2, [r3, #104]
	ldr	r3, .L175
	str	r2, [r3, #100]
	b	.L173
.L171:
	ldr	r2, .L175
	ldr	r3, .L175+4
	str	r3, [r2, #100]
.L173:
	ldr	r3, .L175
	ldr	r3, [r3, #60]
	add	r2, r3, #1
	ldr	r3, .L175
	str	r2, [r3, #60]
	ldmfd	sp, {fp, sp, pc}
.L176:
	.align	2
.L175:
	.word	GSU
	.word	GSU+36
	.size	_Z8fx_to_r9v, .-_Z8fx_to_r9v
	.align	2
	.type	_Z9fx_to_r10v, %function
_Z9fx_to_r10v:
	@ args = 0, pretend = 0, frame = 0
	@ frame_needed = 1, uses_anonymous_args = 0
	mov	ip, sp
	stmfd	sp!, {fp, ip, lr, pc}
	sub	fp, ip, #4
	ldr	r3, .L182
	ldr	r3, [r3, #72]
	and	r3, r3, #4096
	cmp	r3, #0
	beq	.L178
	ldr	r3, .L182
	ldr	r3, [r3, #104]
	ldr	r2, [r3, #0]
	ldr	r3, .L182
	str	r2, [r3, #40]
	ldr	r3, .L182
	ldr	r3, [r3, #72]
	bic	r2, r3, #4864
	ldr	r3, .L182
	str	r2, [r3, #72]
	ldr	r2, .L182
	ldr	r3, .L182
	str	r3, [r2, #104]
	ldr	r3, .L182
	ldr	r2, [r3, #104]
	ldr	r3, .L182
	str	r2, [r3, #100]
	b	.L180
.L178:
	ldr	r2, .L182
	ldr	r3, .L182+4
	str	r3, [r2, #100]
.L180:
	ldr	r3, .L182
	ldr	r3, [r3, #60]
	add	r2, r3, #1
	ldr	r3, .L182
	str	r2, [r3, #60]
	ldmfd	sp, {fp, sp, pc}
.L183:
	.align	2
.L182:
	.word	GSU
	.word	GSU+40
	.size	_Z9fx_to_r10v, .-_Z9fx_to_r10v
	.align	2
	.type	_Z9fx_to_r11v, %function
_Z9fx_to_r11v:
	@ args = 0, pretend = 0, frame = 0
	@ frame_needed = 1, uses_anonymous_args = 0
	mov	ip, sp
	stmfd	sp!, {fp, ip, lr, pc}
	sub	fp, ip, #4
	ldr	r3, .L189
	ldr	r3, [r3, #72]
	and	r3, r3, #4096
	cmp	r3, #0
	beq	.L185
	ldr	r3, .L189
	ldr	r3, [r3, #104]
	ldr	r2, [r3, #0]
	ldr	r3, .L189
	str	r2, [r3, #44]
	ldr	r3, .L189
	ldr	r3, [r3, #72]
	bic	r2, r3, #4864
	ldr	r3, .L189
	str	r2, [r3, #72]
	ldr	r2, .L189
	ldr	r3, .L189
	str	r3, [r2, #104]
	ldr	r3, .L189
	ldr	r2, [r3, #104]
	ldr	r3, .L189
	str	r2, [r3, #100]
	b	.L187
.L185:
	ldr	r2, .L189
	ldr	r3, .L189+4
	str	r3, [r2, #100]
.L187:
	ldr	r3, .L189
	ldr	r3, [r3, #60]
	add	r2, r3, #1
	ldr	r3, .L189
	str	r2, [r3, #60]
	ldmfd	sp, {fp, sp, pc}
.L190:
	.align	2
.L189:
	.word	GSU
	.word	GSU+44
	.size	_Z9fx_to_r11v, .-_Z9fx_to_r11v
	.align	2
	.type	_Z9fx_to_r12v, %function
_Z9fx_to_r12v:
	@ args = 0, pretend = 0, frame = 0
	@ frame_needed = 1, uses_anonymous_args = 0
	mov	ip, sp
	stmfd	sp!, {fp, ip, lr, pc}
	sub	fp, ip, #4
	ldr	r3, .L196
	ldr	r3, [r3, #72]
	and	r3, r3, #4096
	cmp	r3, #0
	beq	.L192
	ldr	r3, .L196
	ldr	r3, [r3, #104]
	ldr	r2, [r3, #0]
	ldr	r3, .L196
	str	r2, [r3, #48]
	ldr	r3, .L196
	ldr	r3, [r3, #72]
	bic	r2, r3, #4864
	ldr	r3, .L196
	str	r2, [r3, #72]
	ldr	r2, .L196
	ldr	r3, .L196
	str	r3, [r2, #104]
	ldr	r3, .L196
	ldr	r2, [r3, #104]
	ldr	r3, .L196
	str	r2, [r3, #100]
	b	.L194
.L192:
	ldr	r2, .L196
	ldr	r3, .L196+4
	str	r3, [r2, #100]
.L194:
	ldr	r3, .L196
	ldr	r3, [r3, #60]
	add	r2, r3, #1
	ldr	r3, .L196
	str	r2, [r3, #60]
	ldmfd	sp, {fp, sp, pc}
.L197:
	.align	2
.L196:
	.word	GSU
	.word	GSU+48
	.size	_Z9fx_to_r12v, .-_Z9fx_to_r12v
	.align	2
	.type	_Z9fx_to_r13v, %function
_Z9fx_to_r13v:
	@ args = 0, pretend = 0, frame = 0
	@ frame_needed = 1, uses_anonymous_args = 0
	mov	ip, sp
	stmfd	sp!, {fp, ip, lr, pc}
	sub	fp, ip, #4
	ldr	r3, .L203
	ldr	r3, [r3, #72]
	and	r3, r3, #4096
	cmp	r3, #0
	beq	.L199
	ldr	r3, .L203
	ldr	r3, [r3, #104]
	ldr	r2, [r3, #0]
	ldr	r3, .L203
	str	r2, [r3, #52]
	ldr	r3, .L203
	ldr	r3, [r3, #72]
	bic	r2, r3, #4864
	ldr	r3, .L203
	str	r2, [r3, #72]
	ldr	r2, .L203
	ldr	r3, .L203
	str	r3, [r2, #104]
	ldr	r3, .L203
	ldr	r2, [r3, #104]
	ldr	r3, .L203
	str	r2, [r3, #100]
	b	.L201
.L199:
	ldr	r2, .L203
	ldr	r3, .L203+4
	str	r3, [r2, #100]
.L201:
	ldr	r3, .L203
	ldr	r3, [r3, #60]
	add	r2, r3, #1
	ldr	r3, .L203
	str	r2, [r3, #60]
	ldmfd	sp, {fp, sp, pc}
.L204:
	.align	2
.L203:
	.word	GSU
	.word	GSU+52
	.size	_Z9fx_to_r13v, .-_Z9fx_to_r13v
	.align	2
	.type	_Z9fx_to_r14v, %function
_Z9fx_to_r14v:
	@ args = 0, pretend = 0, frame = 0
	@ frame_needed = 1, uses_anonymous_args = 0
	mov	ip, sp
	stmfd	sp!, {fp, ip, lr, pc}
	sub	fp, ip, #4
	ldr	r3, .L210
	ldr	r3, [r3, #72]
	and	r3, r3, #4096
	cmp	r3, #0
	beq	.L206
	ldr	r3, .L210
	ldr	r3, [r3, #104]
	ldr	r2, [r3, #0]
	ldr	r3, .L210
	str	r2, [r3, #56]
	ldr	r3, .L210
	ldr	r3, [r3, #72]
	bic	r2, r3, #4864
	ldr	r3, .L210
	str	r2, [r3, #72]
	ldr	r2, .L210
	ldr	r3, .L210
	str	r3, [r2, #104]
	ldr	r3, .L210
	ldr	r2, [r3, #104]
	ldr	r3, .L210
	str	r2, [r3, #100]
	ldr	r3, .L210
	ldr	r2, [r3, #468]
	ldr	r3, .L210
	ldr	r3, [r3, #56]
	mov	r3, r3, asl #16
	mov	r3, r3, lsr #16
	add	r3, r2, r3
	ldrb	r3, [r3, #0]	@ zero_extendqisi2
	ldr	r2, .L210
	strb	r3, [r2, #108]
	b	.L208
.L206:
	ldr	r2, .L210
	ldr	r3, .L210+4
	str	r3, [r2, #100]
.L208:
	ldr	r3, .L210
	ldr	r3, [r3, #60]
	add	r2, r3, #1
	ldr	r3, .L210
	str	r2, [r3, #60]
	ldmfd	sp, {fp, sp, pc}
.L211:
	.align	2
.L210:
	.word	GSU
	.word	GSU+56
	.size	_Z9fx_to_r14v, .-_Z9fx_to_r14v
	.align	2
	.type	_Z9fx_to_r15v, %function
_Z9fx_to_r15v:
	@ args = 0, pretend = 0, frame = 0
	@ frame_needed = 1, uses_anonymous_args = 0
	mov	ip, sp
	stmfd	sp!, {fp, ip, lr, pc}
	sub	fp, ip, #4
	ldr	r3, .L217
	ldr	r3, [r3, #72]
	and	r3, r3, #4096
	cmp	r3, #0
	beq	.L213
	ldr	r3, .L217
	ldr	r3, [r3, #104]
	ldr	r2, [r3, #0]
	ldr	r3, .L217
	str	r2, [r3, #60]
	ldr	r3, .L217
	ldr	r3, [r3, #72]
	bic	r2, r3, #4864
	ldr	r3, .L217
	str	r2, [r3, #72]
	ldr	r2, .L217
	ldr	r3, .L217
	str	r3, [r2, #104]
	ldr	r3, .L217
	ldr	r2, [r3, #104]
	ldr	r3, .L217
	str	r2, [r3, #100]
	b	.L216
.L213:
	ldr	r2, .L217
	ldr	r3, .L217+4
	str	r3, [r2, #100]
	ldr	r3, .L217
	ldr	r3, [r3, #60]
	add	r2, r3, #1
	ldr	r3, .L217
	str	r2, [r3, #60]
.L216:
	ldmfd	sp, {fp, sp, pc}
.L218:
	.align	2
.L217:
	.word	GSU
	.word	GSU+60
	.size	_Z9fx_to_r15v, .-_Z9fx_to_r15v
	.align	2
	.type	_Z10fx_with_r0v, %function
_Z10fx_with_r0v:
	@ args = 0, pretend = 0, frame = 0
	@ frame_needed = 1, uses_anonymous_args = 0
	mov	ip, sp
	stmfd	sp!, {fp, ip, lr, pc}
	sub	fp, ip, #4
	ldr	r3, .L221
	ldr	r3, [r3, #72]
	orr	r2, r3, #4096
	ldr	r3, .L221
	str	r2, [r3, #72]
	ldr	r2, .L221
	ldr	r3, .L221
	str	r3, [r2, #100]
	ldr	r3, .L221
	ldr	r2, [r3, #100]
	ldr	r3, .L221
	str	r2, [r3, #104]
	ldr	r3, .L221
	ldr	r3, [r3, #60]
	add	r2, r3, #1
	ldr	r3, .L221
	str	r2, [r3, #60]
	ldmfd	sp, {fp, sp, pc}
.L222:
	.align	2
.L221:
	.word	GSU
	.size	_Z10fx_with_r0v, .-_Z10fx_with_r0v
	.align	2
	.type	_Z10fx_with_r1v, %function
_Z10fx_with_r1v:
	@ args = 0, pretend = 0, frame = 0
	@ frame_needed = 1, uses_anonymous_args = 0
	mov	ip, sp
	stmfd	sp!, {fp, ip, lr, pc}
	sub	fp, ip, #4
	ldr	r3, .L225
	ldr	r3, [r3, #72]
	orr	r2, r3, #4096
	ldr	r3, .L225
	str	r2, [r3, #72]
	ldr	r2, .L225
	ldr	r3, .L225+4
	str	r3, [r2, #100]
	ldr	r3, .L225
	ldr	r2, [r3, #100]
	ldr	r3, .L225
	str	r2, [r3, #104]
	ldr	r3, .L225
	ldr	r3, [r3, #60]
	add	r2, r3, #1
	ldr	r3, .L225
	str	r2, [r3, #60]
	ldmfd	sp, {fp, sp, pc}
.L226:
	.align	2
.L225:
	.word	GSU
	.word	GSU+4
	.size	_Z10fx_with_r1v, .-_Z10fx_with_r1v
	.align	2
	.type	_Z10fx_with_r2v, %function
_Z10fx_with_r2v:
	@ args = 0, pretend = 0, frame = 0
	@ frame_needed = 1, uses_anonymous_args = 0
	mov	ip, sp
	stmfd	sp!, {fp, ip, lr, pc}
	sub	fp, ip, #4
	ldr	r3, .L229
	ldr	r3, [r3, #72]
	orr	r2, r3, #4096
	ldr	r3, .L229
	str	r2, [r3, #72]
	ldr	r2, .L229
	ldr	r3, .L229+4
	str	r3, [r2, #100]
	ldr	r3, .L229
	ldr	r2, [r3, #100]
	ldr	r3, .L229
	str	r2, [r3, #104]
	ldr	r3, .L229
	ldr	r3, [r3, #60]
	add	r2, r3, #1
	ldr	r3, .L229
	str	r2, [r3, #60]
	ldmfd	sp, {fp, sp, pc}
.L230:
	.align	2
.L229:
	.word	GSU
	.word	GSU+8
	.size	_Z10fx_with_r2v, .-_Z10fx_with_r2v
	.align	2
	.type	_Z10fx_with_r3v, %function
_Z10fx_with_r3v:
	@ args = 0, pretend = 0, frame = 0
	@ frame_needed = 1, uses_anonymous_args = 0
	mov	ip, sp
	stmfd	sp!, {fp, ip, lr, pc}
	sub	fp, ip, #4
	ldr	r3, .L233
	ldr	r3, [r3, #72]
	orr	r2, r3, #4096
	ldr	r3, .L233
	str	r2, [r3, #72]
	ldr	r2, .L233
	ldr	r3, .L233+4
	str	r3, [r2, #100]
	ldr	r3, .L233
	ldr	r2, [r3, #100]
	ldr	r3, .L233
	str	r2, [r3, #104]
	ldr	r3, .L233
	ldr	r3, [r3, #60]
	add	r2, r3, #1
	ldr	r3, .L233
	str	r2, [r3, #60]
	ldmfd	sp, {fp, sp, pc}
.L234:
	.align	2
.L233:
	.word	GSU
	.word	GSU+12
	.size	_Z10fx_with_r3v, .-_Z10fx_with_r3v
	.align	2
	.type	_Z10fx_with_r4v, %function
_Z10fx_with_r4v:
	@ args = 0, pretend = 0, frame = 0
	@ frame_needed = 1, uses_anonymous_args = 0
	mov	ip, sp
	stmfd	sp!, {fp, ip, lr, pc}
	sub	fp, ip, #4
	ldr	r3, .L237
	ldr	r3, [r3, #72]
	orr	r2, r3, #4096
	ldr	r3, .L237
	str	r2, [r3, #72]
	ldr	r2, .L237
	ldr	r3, .L237+4
	str	r3, [r2, #100]
	ldr	r3, .L237
	ldr	r2, [r3, #100]
	ldr	r3, .L237
	str	r2, [r3, #104]
	ldr	r3, .L237
	ldr	r3, [r3, #60]
	add	r2, r3, #1
	ldr	r3, .L237
	str	r2, [r3, #60]
	ldmfd	sp, {fp, sp, pc}
.L238:
	.align	2
.L237:
	.word	GSU
	.word	GSU+16
	.size	_Z10fx_with_r4v, .-_Z10fx_with_r4v
	.align	2
	.type	_Z10fx_with_r5v, %function
_Z10fx_with_r5v:
	@ args = 0, pretend = 0, frame = 0
	@ frame_needed = 1, uses_anonymous_args = 0
	mov	ip, sp
	stmfd	sp!, {fp, ip, lr, pc}
	sub	fp, ip, #4
	ldr	r3, .L241
	ldr	r3, [r3, #72]
	orr	r2, r3, #4096
	ldr	r3, .L241
	str	r2, [r3, #72]
	ldr	r2, .L241
	ldr	r3, .L241+4
	str	r3, [r2, #100]
	ldr	r3, .L241
	ldr	r2, [r3, #100]
	ldr	r3, .L241
	str	r2, [r3, #104]
	ldr	r3, .L241
	ldr	r3, [r3, #60]
	add	r2, r3, #1
	ldr	r3, .L241
	str	r2, [r3, #60]
	ldmfd	sp, {fp, sp, pc}
.L242:
	.align	2
.L241:
	.word	GSU
	.word	GSU+20
	.size	_Z10fx_with_r5v, .-_Z10fx_with_r5v
	.align	2
	.type	_Z10fx_with_r6v, %function
_Z10fx_with_r6v:
	@ args = 0, pretend = 0, frame = 0
	@ frame_needed = 1, uses_anonymous_args = 0
	mov	ip, sp
	stmfd	sp!, {fp, ip, lr, pc}
	sub	fp, ip, #4
	ldr	r3, .L245
	ldr	r3, [r3, #72]
	orr	r2, r3, #4096
	ldr	r3, .L245
	str	r2, [r3, #72]
	ldr	r2, .L245
	ldr	r3, .L245+4
	str	r3, [r2, #100]
	ldr	r3, .L245
	ldr	r2, [r3, #100]
	ldr	r3, .L245
	str	r2, [r3, #104]
	ldr	r3, .L245
	ldr	r3, [r3, #60]
	add	r2, r3, #1
	ldr	r3, .L245
	str	r2, [r3, #60]
	ldmfd	sp, {fp, sp, pc}
.L246:
	.align	2
.L245:
	.word	GSU
	.word	GSU+24
	.size	_Z10fx_with_r6v, .-_Z10fx_with_r6v
	.align	2
	.type	_Z10fx_with_r7v, %function
_Z10fx_with_r7v:
	@ args = 0, pretend = 0, frame = 0
	@ frame_needed = 1, uses_anonymous_args = 0
	mov	ip, sp
	stmfd	sp!, {fp, ip, lr, pc}
	sub	fp, ip, #4
	ldr	r3, .L249
	ldr	r3, [r3, #72]
	orr	r2, r3, #4096
	ldr	r3, .L249
	str	r2, [r3, #72]
	ldr	r2, .L249
	ldr	r3, .L249+4
	str	r3, [r2, #100]
	ldr	r3, .L249
	ldr	r2, [r3, #100]
	ldr	r3, .L249
	str	r2, [r3, #104]
	ldr	r3, .L249
	ldr	r3, [r3, #60]
	add	r2, r3, #1
	ldr	r3, .L249
	str	r2, [r3, #60]
	ldmfd	sp, {fp, sp, pc}
.L250:
	.align	2
.L249:
	.word	GSU
	.word	GSU+28
	.size	_Z10fx_with_r7v, .-_Z10fx_with_r7v
	.align	2
	.type	_Z10fx_with_r8v, %function
_Z10fx_with_r8v:
	@ args = 0, pretend = 0, frame = 0
	@ frame_needed = 1, uses_anonymous_args = 0
	mov	ip, sp
	stmfd	sp!, {fp, ip, lr, pc}
	sub	fp, ip, #4
	ldr	r3, .L253
	ldr	r3, [r3, #72]
	orr	r2, r3, #4096
	ldr	r3, .L253
	str	r2, [r3, #72]
	ldr	r2, .L253
	ldr	r3, .L253+4
	str	r3, [r2, #100]
	ldr	r3, .L253
	ldr	r2, [r3, #100]
	ldr	r3, .L253
	str	r2, [r3, #104]
	ldr	r3, .L253
	ldr	r3, [r3, #60]
	add	r2, r3, #1
	ldr	r3, .L253
	str	r2, [r3, #60]
	ldmfd	sp, {fp, sp, pc}
.L254:
	.align	2
.L253:
	.word	GSU
	.word	GSU+32
	.size	_Z10fx_with_r8v, .-_Z10fx_with_r8v
	.align	2
	.type	_Z10fx_with_r9v, %function
_Z10fx_with_r9v:
	@ args = 0, pretend = 0, frame = 0
	@ frame_needed = 1, uses_anonymous_args = 0
	mov	ip, sp
	stmfd	sp!, {fp, ip, lr, pc}
	sub	fp, ip, #4
	ldr	r3, .L257
	ldr	r3, [r3, #72]
	orr	r2, r3, #4096
	ldr	r3, .L257
	str	r2, [r3, #72]
	ldr	r2, .L257
	ldr	r3, .L257+4
	str	r3, [r2, #100]
	ldr	r3, .L257
	ldr	r2, [r3, #100]
	ldr	r3, .L257
	str	r2, [r3, #104]
	ldr	r3, .L257
	ldr	r3, [r3, #60]
	add	r2, r3, #1
	ldr	r3, .L257
	str	r2, [r3, #60]
	ldmfd	sp, {fp, sp, pc}
.L258:
	.align	2
.L257:
	.word	GSU
	.word	GSU+36
	.size	_Z10fx_with_r9v, .-_Z10fx_with_r9v
	.align	2
	.type	_Z11fx_with_r10v, %function
_Z11fx_with_r10v:
	@ args = 0, pretend = 0, frame = 0
	@ frame_needed = 1, uses_anonymous_args = 0
	mov	ip, sp
	stmfd	sp!, {fp, ip, lr, pc}
	sub	fp, ip, #4
	ldr	r3, .L261
	ldr	r3, [r3, #72]
	orr	r2, r3, #4096
	ldr	r3, .L261
	str	r2, [r3, #72]
	ldr	r2, .L261
	ldr	r3, .L261+4
	str	r3, [r2, #100]
	ldr	r3, .L261
	ldr	r2, [r3, #100]
	ldr	r3, .L261
	str	r2, [r3, #104]
	ldr	r3, .L261
	ldr	r3, [r3, #60]
	add	r2, r3, #1
	ldr	r3, .L261
	str	r2, [r3, #60]
	ldmfd	sp, {fp, sp, pc}
.L262:
	.align	2
.L261:
	.word	GSU
	.word	GSU+40
	.size	_Z11fx_with_r10v, .-_Z11fx_with_r10v
	.align	2
	.type	_Z11fx_with_r11v, %function
_Z11fx_with_r11v:
	@ args = 0, pretend = 0, frame = 0
	@ frame_needed = 1, uses_anonymous_args = 0
	mov	ip, sp
	stmfd	sp!, {fp, ip, lr, pc}
	sub	fp, ip, #4
	ldr	r3, .L265
	ldr	r3, [r3, #72]
	orr	r2, r3, #4096
	ldr	r3, .L265
	str	r2, [r3, #72]
	ldr	r2, .L265
	ldr	r3, .L265+4
	str	r3, [r2, #100]
	ldr	r3, .L265
	ldr	r2, [r3, #100]
	ldr	r3, .L265
	str	r2, [r3, #104]
	ldr	r3, .L265
	ldr	r3, [r3, #60]
	add	r2, r3, #1
	ldr	r3, .L265
	str	r2, [r3, #60]
	ldmfd	sp, {fp, sp, pc}
.L266:
	.align	2
.L265:
	.word	GSU
	.word	GSU+44
	.size	_Z11fx_with_r11v, .-_Z11fx_with_r11v
	.align	2
	.type	_Z11fx_with_r12v, %function
_Z11fx_with_r12v:
	@ args = 0, pretend = 0, frame = 0
	@ frame_needed = 1, uses_anonymous_args = 0
	mov	ip, sp
	stmfd	sp!, {fp, ip, lr, pc}
	sub	fp, ip, #4
	ldr	r3, .L269
	ldr	r3, [r3, #72]
	orr	r2, r3, #4096
	ldr	r3, .L269
	str	r2, [r3, #72]
	ldr	r2, .L269
	ldr	r3, .L269+4
	str	r3, [r2, #100]
	ldr	r3, .L269
	ldr	r2, [r3, #100]
	ldr	r3, .L269
	str	r2, [r3, #104]
	ldr	r3, .L269
	ldr	r3, [r3, #60]
	add	r2, r3, #1
	ldr	r3, .L269
	str	r2, [r3, #60]
	ldmfd	sp, {fp, sp, pc}
.L270:
	.align	2
.L269:
	.word	GSU
	.word	GSU+48
	.size	_Z11fx_with_r12v, .-_Z11fx_with_r12v
	.align	2
	.type	_Z11fx_with_r13v, %function
_Z11fx_with_r13v:
	@ args = 0, pretend = 0, frame = 0
	@ frame_needed = 1, uses_anonymous_args = 0
	mov	ip, sp
	stmfd	sp!, {fp, ip, lr, pc}
	sub	fp, ip, #4
	ldr	r3, .L273
	ldr	r3, [r3, #72]
	orr	r2, r3, #4096
	ldr	r3, .L273
	str	r2, [r3, #72]
	ldr	r2, .L273
	ldr	r3, .L273+4
	str	r3, [r2, #100]
	ldr	r3, .L273
	ldr	r2, [r3, #100]
	ldr	r3, .L273
	str	r2, [r3, #104]
	ldr	r3, .L273
	ldr	r3, [r3, #60]
	add	r2, r3, #1
	ldr	r3, .L273
	str	r2, [r3, #60]
	ldmfd	sp, {fp, sp, pc}
.L274:
	.align	2
.L273:
	.word	GSU
	.word	GSU+52
	.size	_Z11fx_with_r13v, .-_Z11fx_with_r13v
	.align	2
	.type	_Z11fx_with_r14v, %function
_Z11fx_with_r14v:
	@ args = 0, pretend = 0, frame = 0
	@ frame_needed = 1, uses_anonymous_args = 0
	mov	ip, sp
	stmfd	sp!, {fp, ip, lr, pc}
	sub	fp, ip, #4
	ldr	r3, .L277
	ldr	r3, [r3, #72]
	orr	r2, r3, #4096
	ldr	r3, .L277
	str	r2, [r3, #72]
	ldr	r2, .L277
	ldr	r3, .L277+4
	str	r3, [r2, #100]
	ldr	r3, .L277
	ldr	r2, [r3, #100]
	ldr	r3, .L277
	str	r2, [r3, #104]
	ldr	r3, .L277
	ldr	r3, [r3, #60]
	add	r2, r3, #1
	ldr	r3, .L277
	str	r2, [r3, #60]
	ldmfd	sp, {fp, sp, pc}
.L278:
	.align	2
.L277:
	.word	GSU
	.word	GSU+56
	.size	_Z11fx_with_r14v, .-_Z11fx_with_r14v
	.align	2
	.type	_Z11fx_with_r15v, %function
_Z11fx_with_r15v:
	@ args = 0, pretend = 0, frame = 0
	@ frame_needed = 1, uses_anonymous_args = 0
	mov	ip, sp
	stmfd	sp!, {fp, ip, lr, pc}
	sub	fp, ip, #4
	ldr	r3, .L281
	ldr	r3, [r3, #72]
	orr	r2, r3, #4096
	ldr	r3, .L281
	str	r2, [r3, #72]
	ldr	r2, .L281
	ldr	r3, .L281+4
	str	r3, [r2, #100]
	ldr	r3, .L281
	ldr	r2, [r3, #100]
	ldr	r3, .L281
	str	r2, [r3, #104]
	ldr	r3, .L281
	ldr	r3, [r3, #60]
	add	r2, r3, #1
	ldr	r3, .L281
	str	r2, [r3, #60]
	ldmfd	sp, {fp, sp, pc}
.L282:
	.align	2
.L281:
	.word	GSU
	.word	GSU+60
	.size	_Z11fx_with_r15v, .-_Z11fx_with_r15v
	.align	2
	.type	_Z9fx_stw_r0v, %function
_Z9fx_stw_r0v:
	@ args = 0, pretend = 0, frame = 0
	@ frame_needed = 1, uses_anonymous_args = 0
	mov	ip, sp
	stmfd	sp!, {fp, ip, lr, pc}
	sub	fp, ip, #4
	ldr	r3, .L285
	ldr	r2, [r3, #0]
	ldr	r3, .L285
	str	r2, [r3, #96]
	ldr	r3, .L285
	ldr	r2, [r3, #464]
	ldr	r3, .L285
	ldr	r3, [r3, #0]
	mov	r3, r3, asl #16
	mov	r3, r3, lsr #16
	add	r2, r2, r3
	ldr	r3, .L285
	ldr	r3, [r3, #104]
	ldr	r3, [r3, #0]
	and	r3, r3, #255
	strb	r3, [r2, #0]
	ldr	r3, .L285
	ldr	r2, [r3, #464]
	ldr	r3, .L285
	ldr	r3, [r3, #0]
	mov	r3, r3, asl #16
	mov	r3, r3, lsr #16
	eor	r3, r3, #1
	mov	r3, r3, asl #16
	mov	r3, r3, lsr #16
	add	r2, r2, r3
	ldr	r3, .L285
	ldr	r3, [r3, #104]
	ldr	r3, [r3, #0]
	mov	r3, r3, lsr #8
	and	r3, r3, #255
	strb	r3, [r2, #0]
	ldr	r3, .L285
	ldr	r3, [r3, #72]
	bic	r2, r3, #4864
	ldr	r3, .L285
	str	r2, [r3, #72]
	ldr	r2, .L285
	ldr	r3, .L285
	str	r3, [r2, #104]
	ldr	r3, .L285
	ldr	r2, [r3, #104]
	ldr	r3, .L285
	str	r2, [r3, #100]
	ldr	r3, .L285
	ldr	r3, [r3, #60]
	add	r2, r3, #1
	ldr	r3, .L285
	str	r2, [r3, #60]
	ldmfd	sp, {fp, sp, pc}
.L286:
	.align	2
.L285:
	.word	GSU
	.size	_Z9fx_stw_r0v, .-_Z9fx_stw_r0v
	.align	2
	.type	_Z9fx_stw_r1v, %function
_Z9fx_stw_r1v:
	@ args = 0, pretend = 0, frame = 0
	@ frame_needed = 1, uses_anonymous_args = 0
	mov	ip, sp
	stmfd	sp!, {fp, ip, lr, pc}
	sub	fp, ip, #4
	ldr	r3, .L289
	ldr	r2, [r3, #4]
	ldr	r3, .L289
	str	r2, [r3, #96]
	ldr	r3, .L289
	ldr	r2, [r3, #464]
	ldr	r3, .L289
	ldr	r3, [r3, #4]
	mov	r3, r3, asl #16
	mov	r3, r3, lsr #16
	add	r2, r2, r3
	ldr	r3, .L289
	ldr	r3, [r3, #104]
	ldr	r3, [r3, #0]
	and	r3, r3, #255
	strb	r3, [r2, #0]
	ldr	r3, .L289
	ldr	r2, [r3, #464]
	ldr	r3, .L289
	ldr	r3, [r3, #4]
	mov	r3, r3, asl #16
	mov	r3, r3, lsr #16
	eor	r3, r3, #1
	mov	r3, r3, asl #16
	mov	r3, r3, lsr #16
	add	r2, r2, r3
	ldr	r3, .L289
	ldr	r3, [r3, #104]
	ldr	r3, [r3, #0]
	mov	r3, r3, lsr #8
	and	r3, r3, #255
	strb	r3, [r2, #0]
	ldr	r3, .L289
	ldr	r3, [r3, #72]
	bic	r2, r3, #4864
	ldr	r3, .L289
	str	r2, [r3, #72]
	ldr	r2, .L289
	ldr	r3, .L289
	str	r3, [r2, #104]
	ldr	r3, .L289
	ldr	r2, [r3, #104]
	ldr	r3, .L289
	str	r2, [r3, #100]
	ldr	r3, .L289
	ldr	r3, [r3, #60]
	add	r2, r3, #1
	ldr	r3, .L289
	str	r2, [r3, #60]
	ldmfd	sp, {fp, sp, pc}
.L290:
	.align	2
.L289:
	.word	GSU
	.size	_Z9fx_stw_r1v, .-_Z9fx_stw_r1v
	.align	2
	.type	_Z9fx_stw_r2v, %function
_Z9fx_stw_r2v:
	@ args = 0, pretend = 0, frame = 0
	@ frame_needed = 1, uses_anonymous_args = 0
	mov	ip, sp
	stmfd	sp!, {fp, ip, lr, pc}
	sub	fp, ip, #4
	ldr	r3, .L293
	ldr	r2, [r3, #8]
	ldr	r3, .L293
	str	r2, [r3, #96]
	ldr	r3, .L293
	ldr	r2, [r3, #464]
	ldr	r3, .L293
	ldr	r3, [r3, #8]
	mov	r3, r3, asl #16
	mov	r3, r3, lsr #16
	add	r2, r2, r3
	ldr	r3, .L293
	ldr	r3, [r3, #104]
	ldr	r3, [r3, #0]
	and	r3, r3, #255
	strb	r3, [r2, #0]
	ldr	r3, .L293
	ldr	r2, [r3, #464]
	ldr	r3, .L293
	ldr	r3, [r3, #8]
	mov	r3, r3, asl #16
	mov	r3, r3, lsr #16
	eor	r3, r3, #1
	mov	r3, r3, asl #16
	mov	r3, r3, lsr #16
	add	r2, r2, r3
	ldr	r3, .L293
	ldr	r3, [r3, #104]
	ldr	r3, [r3, #0]
	mov	r3, r3, lsr #8
	and	r3, r3, #255
	strb	r3, [r2, #0]
	ldr	r3, .L293
	ldr	r3, [r3, #72]
	bic	r2, r3, #4864
	ldr	r3, .L293
	str	r2, [r3, #72]
	ldr	r2, .L293
	ldr	r3, .L293
	str	r3, [r2, #104]
	ldr	r3, .L293
	ldr	r2, [r3, #104]
	ldr	r3, .L293
	str	r2, [r3, #100]
	ldr	r3, .L293
	ldr	r3, [r3, #60]
	add	r2, r3, #1
	ldr	r3, .L293
	str	r2, [r3, #60]
	ldmfd	sp, {fp, sp, pc}
.L294:
	.align	2
.L293:
	.word	GSU
	.size	_Z9fx_stw_r2v, .-_Z9fx_stw_r2v
	.align	2
	.type	_Z9fx_stw_r3v, %function
_Z9fx_stw_r3v:
	@ args = 0, pretend = 0, frame = 0
	@ frame_needed = 1, uses_anonymous_args = 0
	mov	ip, sp
	stmfd	sp!, {fp, ip, lr, pc}
	sub	fp, ip, #4
	ldr	r3, .L297
	ldr	r2, [r3, #12]
	ldr	r3, .L297
	str	r2, [r3, #96]
	ldr	r3, .L297
	ldr	r2, [r3, #464]
	ldr	r3, .L297
	ldr	r3, [r3, #12]
	mov	r3, r3, asl #16
	mov	r3, r3, lsr #16
	add	r2, r2, r3
	ldr	r3, .L297
	ldr	r3, [r3, #104]
	ldr	r3, [r3, #0]
	and	r3, r3, #255
	strb	r3, [r2, #0]
	ldr	r3, .L297
	ldr	r2, [r3, #464]
	ldr	r3, .L297
	ldr	r3, [r3, #12]
	mov	r3, r3, asl #16
	mov	r3, r3, lsr #16
	eor	r3, r3, #1
	mov	r3, r3, asl #16
	mov	r3, r3, lsr #16
	add	r2, r2, r3
	ldr	r3, .L297
	ldr	r3, [r3, #104]
	ldr	r3, [r3, #0]
	mov	r3, r3, lsr #8
	and	r3, r3, #255
	strb	r3, [r2, #0]
	ldr	r3, .L297
	ldr	r3, [r3, #72]
	bic	r2, r3, #4864
	ldr	r3, .L297
	str	r2, [r3, #72]
	ldr	r2, .L297
	ldr	r3, .L297
	str	r3, [r2, #104]
	ldr	r3, .L297
	ldr	r2, [r3, #104]
	ldr	r3, .L297
	str	r2, [r3, #100]
	ldr	r3, .L297
	ldr	r3, [r3, #60]
	add	r2, r3, #1
	ldr	r3, .L297
	str	r2, [r3, #60]
	ldmfd	sp, {fp, sp, pc}
.L298:
	.align	2
.L297:
	.word	GSU
	.size	_Z9fx_stw_r3v, .-_Z9fx_stw_r3v
	.align	2
	.type	_Z9fx_stw_r4v, %function
_Z9fx_stw_r4v:
	@ args = 0, pretend = 0, frame = 0
	@ frame_needed = 1, uses_anonymous_args = 0
	mov	ip, sp
	stmfd	sp!, {fp, ip, lr, pc}
	sub	fp, ip, #4
	ldr	r3, .L301
	ldr	r2, [r3, #16]
	ldr	r3, .L301
	str	r2, [r3, #96]
	ldr	r3, .L301
	ldr	r2, [r3, #464]
	ldr	r3, .L301
	ldr	r3, [r3, #16]
	mov	r3, r3, asl #16
	mov	r3, r3, lsr #16
	add	r2, r2, r3
	ldr	r3, .L301
	ldr	r3, [r3, #104]
	ldr	r3, [r3, #0]
	and	r3, r3, #255
	strb	r3, [r2, #0]
	ldr	r3, .L301
	ldr	r2, [r3, #464]
	ldr	r3, .L301
	ldr	r3, [r3, #16]
	mov	r3, r3, asl #16
	mov	r3, r3, lsr #16
	eor	r3, r3, #1
	mov	r3, r3, asl #16
	mov	r3, r3, lsr #16
	add	r2, r2, r3
	ldr	r3, .L301
	ldr	r3, [r3, #104]
	ldr	r3, [r3, #0]
	mov	r3, r3, lsr #8
	and	r3, r3, #255
	strb	r3, [r2, #0]
	ldr	r3, .L301
	ldr	r3, [r3, #72]
	bic	r2, r3, #4864
	ldr	r3, .L301
	str	r2, [r3, #72]
	ldr	r2, .L301
	ldr	r3, .L301
	str	r3, [r2, #104]
	ldr	r3, .L301
	ldr	r2, [r3, #104]
	ldr	r3, .L301
	str	r2, [r3, #100]
	ldr	r3, .L301
	ldr	r3, [r3, #60]
	add	r2, r3, #1
	ldr	r3, .L301
	str	r2, [r3, #60]
	ldmfd	sp, {fp, sp, pc}
.L302:
	.align	2
.L301:
	.word	GSU
	.size	_Z9fx_stw_r4v, .-_Z9fx_stw_r4v
	.align	2
	.type	_Z9fx_stw_r5v, %function
_Z9fx_stw_r5v:
	@ args = 0, pretend = 0, frame = 0
	@ frame_needed = 1, uses_anonymous_args = 0
	mov	ip, sp
	stmfd	sp!, {fp, ip, lr, pc}
	sub	fp, ip, #4
	ldr	r3, .L305
	ldr	r2, [r3, #20]
	ldr	r3, .L305
	str	r2, [r3, #96]
	ldr	r3, .L305
	ldr	r2, [r3, #464]
	ldr	r3, .L305
	ldr	r3, [r3, #20]
	mov	r3, r3, asl #16
	mov	r3, r3, lsr #16
	add	r2, r2, r3
	ldr	r3, .L305
	ldr	r3, [r3, #104]
	ldr	r3, [r3, #0]
	and	r3, r3, #255
	strb	r3, [r2, #0]
	ldr	r3, .L305
	ldr	r2, [r3, #464]
	ldr	r3, .L305
	ldr	r3, [r3, #20]
	mov	r3, r3, asl #16
	mov	r3, r3, lsr #16
	eor	r3, r3, #1
	mov	r3, r3, asl #16
	mov	r3, r3, lsr #16
	add	r2, r2, r3
	ldr	r3, .L305
	ldr	r3, [r3, #104]
	ldr	r3, [r3, #0]
	mov	r3, r3, lsr #8
	and	r3, r3, #255
	strb	r3, [r2, #0]
	ldr	r3, .L305
	ldr	r3, [r3, #72]
	bic	r2, r3, #4864
	ldr	r3, .L305
	str	r2, [r3, #72]
	ldr	r2, .L305
	ldr	r3, .L305
	str	r3, [r2, #104]
	ldr	r3, .L305
	ldr	r2, [r3, #104]
	ldr	r3, .L305
	str	r2, [r3, #100]
	ldr	r3, .L305
	ldr	r3, [r3, #60]
	add	r2, r3, #1
	ldr	r3, .L305
	str	r2, [r3, #60]
	ldmfd	sp, {fp, sp, pc}
.L306:
	.align	2
.L305:
	.word	GSU
	.size	_Z9fx_stw_r5v, .-_Z9fx_stw_r5v
	.align	2
	.type	_Z9fx_stw_r6v, %function
_Z9fx_stw_r6v:
	@ args = 0, pretend = 0, frame = 0
	@ frame_needed = 1, uses_anonymous_args = 0
	mov	ip, sp
	stmfd	sp!, {fp, ip, lr, pc}
	sub	fp, ip, #4
	ldr	r3, .L309
	ldr	r2, [r3, #24]
	ldr	r3, .L309
	str	r2, [r3, #96]
	ldr	r3, .L309
	ldr	r2, [r3, #464]
	ldr	r3, .L309
	ldr	r3, [r3, #24]
	mov	r3, r3, asl #16
	mov	r3, r3, lsr #16
	add	r2, r2, r3
	ldr	r3, .L309
	ldr	r3, [r3, #104]
	ldr	r3, [r3, #0]
	and	r3, r3, #255
	strb	r3, [r2, #0]
	ldr	r3, .L309
	ldr	r2, [r3, #464]
	ldr	r3, .L309
	ldr	r3, [r3, #24]
	mov	r3, r3, asl #16
	mov	r3, r3, lsr #16
	eor	r3, r3, #1
	mov	r3, r3, asl #16
	mov	r3, r3, lsr #16
	add	r2, r2, r3
	ldr	r3, .L309
	ldr	r3, [r3, #104]
	ldr	r3, [r3, #0]
	mov	r3, r3, lsr #8
	and	r3, r3, #255
	strb	r3, [r2, #0]
	ldr	r3, .L309
	ldr	r3, [r3, #72]
	bic	r2, r3, #4864
	ldr	r3, .L309
	str	r2, [r3, #72]
	ldr	r2, .L309
	ldr	r3, .L309
	str	r3, [r2, #104]
	ldr	r3, .L309
	ldr	r2, [r3, #104]
	ldr	r3, .L309
	str	r2, [r3, #100]
	ldr	r3, .L309
	ldr	r3, [r3, #60]
	add	r2, r3, #1
	ldr	r3, .L309
	str	r2, [r3, #60]
	ldmfd	sp, {fp, sp, pc}
.L310:
	.align	2
.L309:
	.word	GSU
	.size	_Z9fx_stw_r6v, .-_Z9fx_stw_r6v
	.align	2
	.type	_Z9fx_stw_r7v, %function
_Z9fx_stw_r7v:
	@ args = 0, pretend = 0, frame = 0
	@ frame_needed = 1, uses_anonymous_args = 0
	mov	ip, sp
	stmfd	sp!, {fp, ip, lr, pc}
	sub	fp, ip, #4
	ldr	r3, .L313
	ldr	r2, [r3, #28]
	ldr	r3, .L313
	str	r2, [r3, #96]
	ldr	r3, .L313
	ldr	r2, [r3, #464]
	ldr	r3, .L313
	ldr	r3, [r3, #28]
	mov	r3, r3, asl #16
	mov	r3, r3, lsr #16
	add	r2, r2, r3
	ldr	r3, .L313
	ldr	r3, [r3, #104]
	ldr	r3, [r3, #0]
	and	r3, r3, #255
	strb	r3, [r2, #0]
	ldr	r3, .L313
	ldr	r2, [r3, #464]
	ldr	r3, .L313
	ldr	r3, [r3, #28]
	mov	r3, r3, asl #16
	mov	r3, r3, lsr #16
	eor	r3, r3, #1
	mov	r3, r3, asl #16
	mov	r3, r3, lsr #16
	add	r2, r2, r3
	ldr	r3, .L313
	ldr	r3, [r3, #104]
	ldr	r3, [r3, #0]
	mov	r3, r3, lsr #8
	and	r3, r3, #255
	strb	r3, [r2, #0]
	ldr	r3, .L313
	ldr	r3, [r3, #72]
	bic	r2, r3, #4864
	ldr	r3, .L313
	str	r2, [r3, #72]
	ldr	r2, .L313
	ldr	r3, .L313
	str	r3, [r2, #104]
	ldr	r3, .L313
	ldr	r2, [r3, #104]
	ldr	r3, .L313
	str	r2, [r3, #100]
	ldr	r3, .L313
	ldr	r3, [r3, #60]
	add	r2, r3, #1
	ldr	r3, .L313
	str	r2, [r3, #60]
	ldmfd	sp, {fp, sp, pc}
.L314:
	.align	2
.L313:
	.word	GSU
	.size	_Z9fx_stw_r7v, .-_Z9fx_stw_r7v
	.align	2
	.type	_Z9fx_stw_r8v, %function
_Z9fx_stw_r8v:
	@ args = 0, pretend = 0, frame = 0
	@ frame_needed = 1, uses_anonymous_args = 0
	mov	ip, sp
	stmfd	sp!, {fp, ip, lr, pc}
	sub	fp, ip, #4
	ldr	r3, .L317
	ldr	r2, [r3, #32]
	ldr	r3, .L317
	str	r2, [r3, #96]
	ldr	r3, .L317
	ldr	r2, [r3, #464]
	ldr	r3, .L317
	ldr	r3, [r3, #32]
	mov	r3, r3, asl #16
	mov	r3, r3, lsr #16
	add	r2, r2, r3
	ldr	r3, .L317
	ldr	r3, [r3, #104]
	ldr	r3, [r3, #0]
	and	r3, r3, #255
	strb	r3, [r2, #0]
	ldr	r3, .L317
	ldr	r2, [r3, #464]
	ldr	r3, .L317
	ldr	r3, [r3, #32]
	mov	r3, r3, asl #16
	mov	r3, r3, lsr #16
	eor	r3, r3, #1
	mov	r3, r3, asl #16
	mov	r3, r3, lsr #16
	add	r2, r2, r3
	ldr	r3, .L317
	ldr	r3, [r3, #104]
	ldr	r3, [r3, #0]
	mov	r3, r3, lsr #8
	and	r3, r3, #255
	strb	r3, [r2, #0]
	ldr	r3, .L317
	ldr	r3, [r3, #72]
	bic	r2, r3, #4864
	ldr	r3, .L317
	str	r2, [r3, #72]
	ldr	r2, .L317
	ldr	r3, .L317
	str	r3, [r2, #104]
	ldr	r3, .L317
	ldr	r2, [r3, #104]
	ldr	r3, .L317
	str	r2, [r3, #100]
	ldr	r3, .L317
	ldr	r3, [r3, #60]
	add	r2, r3, #1
	ldr	r3, .L317
	str	r2, [r3, #60]
	ldmfd	sp, {fp, sp, pc}
.L318:
	.align	2
.L317:
	.word	GSU
	.size	_Z9fx_stw_r8v, .-_Z9fx_stw_r8v
	.align	2
	.type	_Z9fx_stw_r9v, %function
_Z9fx_stw_r9v:
	@ args = 0, pretend = 0, frame = 0
	@ frame_needed = 1, uses_anonymous_args = 0
	mov	ip, sp
	stmfd	sp!, {fp, ip, lr, pc}
	sub	fp, ip, #4
	ldr	r3, .L321
	ldr	r2, [r3, #36]
	ldr	r3, .L321
	str	r2, [r3, #96]
	ldr	r3, .L321
	ldr	r2, [r3, #464]
	ldr	r3, .L321
	ldr	r3, [r3, #36]
	mov	r3, r3, asl #16
	mov	r3, r3, lsr #16
	add	r2, r2, r3
	ldr	r3, .L321
	ldr	r3, [r3, #104]
	ldr	r3, [r3, #0]
	and	r3, r3, #255
	strb	r3, [r2, #0]
	ldr	r3, .L321
	ldr	r2, [r3, #464]
	ldr	r3, .L321
	ldr	r3, [r3, #36]
	mov	r3, r3, asl #16
	mov	r3, r3, lsr #16
	eor	r3, r3, #1
	mov	r3, r3, asl #16
	mov	r3, r3, lsr #16
	add	r2, r2, r3
	ldr	r3, .L321
	ldr	r3, [r3, #104]
	ldr	r3, [r3, #0]
	mov	r3, r3, lsr #8
	and	r3, r3, #255
	strb	r3, [r2, #0]
	ldr	r3, .L321
	ldr	r3, [r3, #72]
	bic	r2, r3, #4864
	ldr	r3, .L321
	str	r2, [r3, #72]
	ldr	r2, .L321
	ldr	r3, .L321
	str	r3, [r2, #104]
	ldr	r3, .L321
	ldr	r2, [r3, #104]
	ldr	r3, .L321
	str	r2, [r3, #100]
	ldr	r3, .L321
	ldr	r3, [r3, #60]
	add	r2, r3, #1
	ldr	r3, .L321
	str	r2, [r3, #60]
	ldmfd	sp, {fp, sp, pc}
.L322:
	.align	2
.L321:
	.word	GSU
	.size	_Z9fx_stw_r9v, .-_Z9fx_stw_r9v
	.align	2
	.type	_Z10fx_stw_r10v, %function
_Z10fx_stw_r10v:
	@ args = 0, pretend = 0, frame = 0
	@ frame_needed = 1, uses_anonymous_args = 0
	mov	ip, sp
	stmfd	sp!, {fp, ip, lr, pc}
	sub	fp, ip, #4
	ldr	r3, .L325
	ldr	r2, [r3, #40]
	ldr	r3, .L325
	str	r2, [r3, #96]
	ldr	r3, .L325
	ldr	r2, [r3, #464]
	ldr	r3, .L325
	ldr	r3, [r3, #40]
	mov	r3, r3, asl #16
	mov	r3, r3, lsr #16
	add	r2, r2, r3
	ldr	r3, .L325
	ldr	r3, [r3, #104]
	ldr	r3, [r3, #0]
	and	r3, r3, #255
	strb	r3, [r2, #0]
	ldr	r3, .L325
	ldr	r2, [r3, #464]
	ldr	r3, .L325
	ldr	r3, [r3, #40]
	mov	r3, r3, asl #16
	mov	r3, r3, lsr #16
	eor	r3, r3, #1
	mov	r3, r3, asl #16
	mov	r3, r3, lsr #16
	add	r2, r2, r3
	ldr	r3, .L325
	ldr	r3, [r3, #104]
	ldr	r3, [r3, #0]
	mov	r3, r3, lsr #8
	and	r3, r3, #255
	strb	r3, [r2, #0]
	ldr	r3, .L325
	ldr	r3, [r3, #72]
	bic	r2, r3, #4864
	ldr	r3, .L325
	str	r2, [r3, #72]
	ldr	r2, .L325
	ldr	r3, .L325
	str	r3, [r2, #104]
	ldr	r3, .L325
	ldr	r2, [r3, #104]
	ldr	r3, .L325
	str	r2, [r3, #100]
	ldr	r3, .L325
	ldr	r3, [r3, #60]
	add	r2, r3, #1
	ldr	r3, .L325
	str	r2, [r3, #60]
	ldmfd	sp, {fp, sp, pc}
.L326:
	.align	2
.L325:
	.word	GSU
	.size	_Z10fx_stw_r10v, .-_Z10fx_stw_r10v
	.align	2
	.type	_Z10fx_stw_r11v, %function
_Z10fx_stw_r11v:
	@ args = 0, pretend = 0, frame = 0
	@ frame_needed = 1, uses_anonymous_args = 0
	mov	ip, sp
	stmfd	sp!, {fp, ip, lr, pc}
	sub	fp, ip, #4
	ldr	r3, .L329
	ldr	r2, [r3, #44]
	ldr	r3, .L329
	str	r2, [r3, #96]
	ldr	r3, .L329
	ldr	r2, [r3, #464]
	ldr	r3, .L329
	ldr	r3, [r3, #44]
	mov	r3, r3, asl #16
	mov	r3, r3, lsr #16
	add	r2, r2, r3
	ldr	r3, .L329
	ldr	r3, [r3, #104]
	ldr	r3, [r3, #0]
	and	r3, r3, #255
	strb	r3, [r2, #0]
	ldr	r3, .L329
	ldr	r2, [r3, #464]
	ldr	r3, .L329
	ldr	r3, [r3, #44]
	mov	r3, r3, asl #16
	mov	r3, r3, lsr #16
	eor	r3, r3, #1
	mov	r3, r3, asl #16
	mov	r3, r3, lsr #16
	add	r2, r2, r3
	ldr	r3, .L329
	ldr	r3, [r3, #104]
	ldr	r3, [r3, #0]
	mov	r3, r3, lsr #8
	and	r3, r3, #255
	strb	r3, [r2, #0]
	ldr	r3, .L329
	ldr	r3, [r3, #72]
	bic	r2, r3, #4864
	ldr	r3, .L329
	str	r2, [r3, #72]
	ldr	r2, .L329
	ldr	r3, .L329
	str	r3, [r2, #104]
	ldr	r3, .L329
	ldr	r2, [r3, #104]
	ldr	r3, .L329
	str	r2, [r3, #100]
	ldr	r3, .L329
	ldr	r3, [r3, #60]
	add	r2, r3, #1
	ldr	r3, .L329
	str	r2, [r3, #60]
	ldmfd	sp, {fp, sp, pc}
.L330:
	.align	2
.L329:
	.word	GSU
	.size	_Z10fx_stw_r11v, .-_Z10fx_stw_r11v
	.align	2
	.type	_Z9fx_stb_r0v, %function
_Z9fx_stb_r0v:
	@ args = 0, pretend = 0, frame = 0
	@ frame_needed = 1, uses_anonymous_args = 0
	mov	ip, sp
	stmfd	sp!, {fp, ip, lr, pc}
	sub	fp, ip, #4
	ldr	r3, .L333
	ldr	r2, [r3, #0]
	ldr	r3, .L333
	str	r2, [r3, #96]
	ldr	r3, .L333
	ldr	r2, [r3, #464]
	ldr	r3, .L333
	ldr	r3, [r3, #0]
	mov	r3, r3, asl #16
	mov	r3, r3, lsr #16
	add	r2, r2, r3
	ldr	r3, .L333
	ldr	r3, [r3, #104]
	ldr	r3, [r3, #0]
	and	r3, r3, #255
	strb	r3, [r2, #0]
	ldr	r3, .L333
	ldr	r3, [r3, #72]
	bic	r2, r3, #4864
	ldr	r3, .L333
	str	r2, [r3, #72]
	ldr	r2, .L333
	ldr	r3, .L333
	str	r3, [r2, #104]
	ldr	r3, .L333
	ldr	r2, [r3, #104]
	ldr	r3, .L333
	str	r2, [r3, #100]
	ldr	r3, .L333
	ldr	r3, [r3, #60]
	add	r2, r3, #1
	ldr	r3, .L333
	str	r2, [r3, #60]
	ldmfd	sp, {fp, sp, pc}
.L334:
	.align	2
.L333:
	.word	GSU
	.size	_Z9fx_stb_r0v, .-_Z9fx_stb_r0v
	.align	2
	.type	_Z9fx_stb_r1v, %function
_Z9fx_stb_r1v:
	@ args = 0, pretend = 0, frame = 0
	@ frame_needed = 1, uses_anonymous_args = 0
	mov	ip, sp
	stmfd	sp!, {fp, ip, lr, pc}
	sub	fp, ip, #4
	ldr	r3, .L337
	ldr	r2, [r3, #4]
	ldr	r3, .L337
	str	r2, [r3, #96]
	ldr	r3, .L337
	ldr	r2, [r3, #464]
	ldr	r3, .L337
	ldr	r3, [r3, #4]
	mov	r3, r3, asl #16
	mov	r3, r3, lsr #16
	add	r2, r2, r3
	ldr	r3, .L337
	ldr	r3, [r3, #104]
	ldr	r3, [r3, #0]
	and	r3, r3, #255
	strb	r3, [r2, #0]
	ldr	r3, .L337
	ldr	r3, [r3, #72]
	bic	r2, r3, #4864
	ldr	r3, .L337
	str	r2, [r3, #72]
	ldr	r2, .L337
	ldr	r3, .L337
	str	r3, [r2, #104]
	ldr	r3, .L337
	ldr	r2, [r3, #104]
	ldr	r3, .L337
	str	r2, [r3, #100]
	ldr	r3, .L337
	ldr	r3, [r3, #60]
	add	r2, r3, #1
	ldr	r3, .L337
	str	r2, [r3, #60]
	ldmfd	sp, {fp, sp, pc}
.L338:
	.align	2
.L337:
	.word	GSU
	.size	_Z9fx_stb_r1v, .-_Z9fx_stb_r1v
	.align	2
	.type	_Z9fx_stb_r2v, %function
_Z9fx_stb_r2v:
	@ args = 0, pretend = 0, frame = 0
	@ frame_needed = 1, uses_anonymous_args = 0
	mov	ip, sp
	stmfd	sp!, {fp, ip, lr, pc}
	sub	fp, ip, #4
	ldr	r3, .L341
	ldr	r2, [r3, #8]
	ldr	r3, .L341
	str	r2, [r3, #96]
	ldr	r3, .L341
	ldr	r2, [r3, #464]
	ldr	r3, .L341
	ldr	r3, [r3, #8]
	mov	r3, r3, asl #16
	mov	r3, r3, lsr #16
	add	r2, r2, r3
	ldr	r3, .L341
	ldr	r3, [r3, #104]
	ldr	r3, [r3, #0]
	and	r3, r3, #255
	strb	r3, [r2, #0]
	ldr	r3, .L341
	ldr	r3, [r3, #72]
	bic	r2, r3, #4864
	ldr	r3, .L341
	str	r2, [r3, #72]
	ldr	r2, .L341
	ldr	r3, .L341
	str	r3, [r2, #104]
	ldr	r3, .L341
	ldr	r2, [r3, #104]
	ldr	r3, .L341
	str	r2, [r3, #100]
	ldr	r3, .L341
	ldr	r3, [r3, #60]
	add	r2, r3, #1
	ldr	r3, .L341
	str	r2, [r3, #60]
	ldmfd	sp, {fp, sp, pc}
.L342:
	.align	2
.L341:
	.word	GSU
	.size	_Z9fx_stb_r2v, .-_Z9fx_stb_r2v
	.align	2
	.type	_Z9fx_stb_r3v, %function
_Z9fx_stb_r3v:
	@ args = 0, pretend = 0, frame = 0
	@ frame_needed = 1, uses_anonymous_args = 0
	mov	ip, sp
	stmfd	sp!, {fp, ip, lr, pc}
	sub	fp, ip, #4
	ldr	r3, .L345
	ldr	r2, [r3, #12]
	ldr	r3, .L345
	str	r2, [r3, #96]
	ldr	r3, .L345
	ldr	r2, [r3, #464]
	ldr	r3, .L345
	ldr	r3, [r3, #12]
	mov	r3, r3, asl #16
	mov	r3, r3, lsr #16
	add	r2, r2, r3
	ldr	r3, .L345
	ldr	r3, [r3, #104]
	ldr	r3, [r3, #0]
	and	r3, r3, #255
	strb	r3, [r2, #0]
	ldr	r3, .L345
	ldr	r3, [r3, #72]
	bic	r2, r3, #4864
	ldr	r3, .L345
	str	r2, [r3, #72]
	ldr	r2, .L345
	ldr	r3, .L345
	str	r3, [r2, #104]
	ldr	r3, .L345
	ldr	r2, [r3, #104]
	ldr	r3, .L345
	str	r2, [r3, #100]
	ldr	r3, .L345
	ldr	r3, [r3, #60]
	add	r2, r3, #1
	ldr	r3, .L345
	str	r2, [r3, #60]
	ldmfd	sp, {fp, sp, pc}
.L346:
	.align	2
.L345:
	.word	GSU
	.size	_Z9fx_stb_r3v, .-_Z9fx_stb_r3v
	.align	2
	.type	_Z9fx_stb_r4v, %function
_Z9fx_stb_r4v:
	@ args = 0, pretend = 0, frame = 0
	@ frame_needed = 1, uses_anonymous_args = 0
	mov	ip, sp
	stmfd	sp!, {fp, ip, lr, pc}
	sub	fp, ip, #4
	ldr	r3, .L349
	ldr	r2, [r3, #16]
	ldr	r3, .L349
	str	r2, [r3, #96]
	ldr	r3, .L349
	ldr	r2, [r3, #464]
	ldr	r3, .L349
	ldr	r3, [r3, #16]
	mov	r3, r3, asl #16
	mov	r3, r3, lsr #16
	add	r2, r2, r3
	ldr	r3, .L349
	ldr	r3, [r3, #104]
	ldr	r3, [r3, #0]
	and	r3, r3, #255
	strb	r3, [r2, #0]
	ldr	r3, .L349
	ldr	r3, [r3, #72]
	bic	r2, r3, #4864
	ldr	r3, .L349
	str	r2, [r3, #72]
	ldr	r2, .L349
	ldr	r3, .L349
	str	r3, [r2, #104]
	ldr	r3, .L349
	ldr	r2, [r3, #104]
	ldr	r3, .L349
	str	r2, [r3, #100]
	ldr	r3, .L349
	ldr	r3, [r3, #60]
	add	r2, r3, #1
	ldr	r3, .L349
	str	r2, [r3, #60]
	ldmfd	sp, {fp, sp, pc}
.L350:
	.align	2
.L349:
	.word	GSU
	.size	_Z9fx_stb_r4v, .-_Z9fx_stb_r4v
	.align	2
	.type	_Z9fx_stb_r5v, %function
_Z9fx_stb_r5v:
	@ args = 0, pretend = 0, frame = 0
	@ frame_needed = 1, uses_anonymous_args = 0
	mov	ip, sp
	stmfd	sp!, {fp, ip, lr, pc}
	sub	fp, ip, #4
	ldr	r3, .L353
	ldr	r2, [r3, #20]
	ldr	r3, .L353
	str	r2, [r3, #96]
	ldr	r3, .L353
	ldr	r2, [r3, #464]
	ldr	r3, .L353
	ldr	r3, [r3, #20]
	mov	r3, r3, asl #16
	mov	r3, r3, lsr #16
	add	r2, r2, r3
	ldr	r3, .L353
	ldr	r3, [r3, #104]
	ldr	r3, [r3, #0]
	and	r3, r3, #255
	strb	r3, [r2, #0]
	ldr	r3, .L353
	ldr	r3, [r3, #72]
	bic	r2, r3, #4864
	ldr	r3, .L353
	str	r2, [r3, #72]
	ldr	r2, .L353
	ldr	r3, .L353
	str	r3, [r2, #104]
	ldr	r3, .L353
	ldr	r2, [r3, #104]
	ldr	r3, .L353
	str	r2, [r3, #100]
	ldr	r3, .L353
	ldr	r3, [r3, #60]
	add	r2, r3, #1
	ldr	r3, .L353
	str	r2, [r3, #60]
	ldmfd	sp, {fp, sp, pc}
.L354:
	.align	2
.L353:
	.word	GSU
	.size	_Z9fx_stb_r5v, .-_Z9fx_stb_r5v
	.align	2
	.type	_Z9fx_stb_r6v, %function
_Z9fx_stb_r6v:
	@ args = 0, pretend = 0, frame = 0
	@ frame_needed = 1, uses_anonymous_args = 0
	mov	ip, sp
	stmfd	sp!, {fp, ip, lr, pc}
	sub	fp, ip, #4
	ldr	r3, .L357
	ldr	r2, [r3, #24]
	ldr	r3, .L357
	str	r2, [r3, #96]
	ldr	r3, .L357
	ldr	r2, [r3, #464]
	ldr	r3, .L357
	ldr	r3, [r3, #24]
	mov	r3, r3, asl #16
	mov	r3, r3, lsr #16
	add	r2, r2, r3
	ldr	r3, .L357
	ldr	r3, [r3, #104]
	ldr	r3, [r3, #0]
	and	r3, r3, #255
	strb	r3, [r2, #0]
	ldr	r3, .L357
	ldr	r3, [r3, #72]
	bic	r2, r3, #4864
	ldr	r3, .L357
	str	r2, [r3, #72]
	ldr	r2, .L357
	ldr	r3, .L357
	str	r3, [r2, #104]
	ldr	r3, .L357
	ldr	r2, [r3, #104]
	ldr	r3, .L357
	str	r2, [r3, #100]
	ldr	r3, .L357
	ldr	r3, [r3, #60]
	add	r2, r3, #1
	ldr	r3, .L357
	str	r2, [r3, #60]
	ldmfd	sp, {fp, sp, pc}
.L358:
	.align	2
.L357:
	.word	GSU
	.size	_Z9fx_stb_r6v, .-_Z9fx_stb_r6v
	.align	2
	.type	_Z9fx_stb_r7v, %function
_Z9fx_stb_r7v:
	@ args = 0, pretend = 0, frame = 0
	@ frame_needed = 1, uses_anonymous_args = 0
	mov	ip, sp
	stmfd	sp!, {fp, ip, lr, pc}
	sub	fp, ip, #4
	ldr	r3, .L361
	ldr	r2, [r3, #28]
	ldr	r3, .L361
	str	r2, [r3, #96]
	ldr	r3, .L361
	ldr	r2, [r3, #464]
	ldr	r3, .L361
	ldr	r3, [r3, #28]
	mov	r3, r3, asl #16
	mov	r3, r3, lsr #16
	add	r2, r2, r3
	ldr	r3, .L361
	ldr	r3, [r3, #104]
	ldr	r3, [r3, #0]
	and	r3, r3, #255
	strb	r3, [r2, #0]
	ldr	r3, .L361
	ldr	r3, [r3, #72]
	bic	r2, r3, #4864
	ldr	r3, .L361
	str	r2, [r3, #72]
	ldr	r2, .L361
	ldr	r3, .L361
	str	r3, [r2, #104]
	ldr	r3, .L361
	ldr	r2, [r3, #104]
	ldr	r3, .L361
	str	r2, [r3, #100]
	ldr	r3, .L361
	ldr	r3, [r3, #60]
	add	r2, r3, #1
	ldr	r3, .L361
	str	r2, [r3, #60]
	ldmfd	sp, {fp, sp, pc}
.L362:
	.align	2
.L361:
	.word	GSU
	.size	_Z9fx_stb_r7v, .-_Z9fx_stb_r7v
	.align	2
	.type	_Z9fx_stb_r8v, %function
_Z9fx_stb_r8v:
	@ args = 0, pretend = 0, frame = 0
	@ frame_needed = 1, uses_anonymous_args = 0
	mov	ip, sp
	stmfd	sp!, {fp, ip, lr, pc}
	sub	fp, ip, #4
	ldr	r3, .L365
	ldr	r2, [r3, #32]
	ldr	r3, .L365
	str	r2, [r3, #96]
	ldr	r3, .L365
	ldr	r2, [r3, #464]
	ldr	r3, .L365
	ldr	r3, [r3, #32]
	mov	r3, r3, asl #16
	mov	r3, r3, lsr #16
	add	r2, r2, r3
	ldr	r3, .L365
	ldr	r3, [r3, #104]
	ldr	r3, [r3, #0]
	and	r3, r3, #255
	strb	r3, [r2, #0]
	ldr	r3, .L365
	ldr	r3, [r3, #72]
	bic	r2, r3, #4864
	ldr	r3, .L365
	str	r2, [r3, #72]
	ldr	r2, .L365
	ldr	r3, .L365
	str	r3, [r2, #104]
	ldr	r3, .L365
	ldr	r2, [r3, #104]
	ldr	r3, .L365
	str	r2, [r3, #100]
	ldr	r3, .L365
	ldr	r3, [r3, #60]
	add	r2, r3, #1
	ldr	r3, .L365
	str	r2, [r3, #60]
	ldmfd	sp, {fp, sp, pc}
.L366:
	.align	2
.L365:
	.word	GSU
	.size	_Z9fx_stb_r8v, .-_Z9fx_stb_r8v
	.align	2
	.type	_Z9fx_stb_r9v, %function
_Z9fx_stb_r9v:
	@ args = 0, pretend = 0, frame = 0
	@ frame_needed = 1, uses_anonymous_args = 0
	mov	ip, sp
	stmfd	sp!, {fp, ip, lr, pc}
	sub	fp, ip, #4
	ldr	r3, .L369
	ldr	r2, [r3, #36]
	ldr	r3, .L369
	str	r2, [r3, #96]
	ldr	r3, .L369
	ldr	r2, [r3, #464]
	ldr	r3, .L369
	ldr	r3, [r3, #36]
	mov	r3, r3, asl #16
	mov	r3, r3, lsr #16
	add	r2, r2, r3
	ldr	r3, .L369
	ldr	r3, [r3, #104]
	ldr	r3, [r3, #0]
	and	r3, r3, #255
	strb	r3, [r2, #0]
	ldr	r3, .L369
	ldr	r3, [r3, #72]
	bic	r2, r3, #4864
	ldr	r3, .L369
	str	r2, [r3, #72]
	ldr	r2, .L369
	ldr	r3, .L369
	str	r3, [r2, #104]
	ldr	r3, .L369
	ldr	r2, [r3, #104]
	ldr	r3, .L369
	str	r2, [r3, #100]
	ldr	r3, .L369
	ldr	r3, [r3, #60]
	add	r2, r3, #1
	ldr	r3, .L369
	str	r2, [r3, #60]
	ldmfd	sp, {fp, sp, pc}
.L370:
	.align	2
.L369:
	.word	GSU
	.size	_Z9fx_stb_r9v, .-_Z9fx_stb_r9v
	.align	2
	.type	_Z10fx_stb_r10v, %function
_Z10fx_stb_r10v:
	@ args = 0, pretend = 0, frame = 0
	@ frame_needed = 1, uses_anonymous_args = 0
	mov	ip, sp
	stmfd	sp!, {fp, ip, lr, pc}
	sub	fp, ip, #4
	ldr	r3, .L373
	ldr	r2, [r3, #40]
	ldr	r3, .L373
	str	r2, [r3, #96]
	ldr	r3, .L373
	ldr	r2, [r3, #464]
	ldr	r3, .L373
	ldr	r3, [r3, #40]
	mov	r3, r3, asl #16
	mov	r3, r3, lsr #16
	add	r2, r2, r3
	ldr	r3, .L373
	ldr	r3, [r3, #104]
	ldr	r3, [r3, #0]
	and	r3, r3, #255
	strb	r3, [r2, #0]
	ldr	r3, .L373
	ldr	r3, [r3, #72]
	bic	r2, r3, #4864
	ldr	r3, .L373
	str	r2, [r3, #72]
	ldr	r2, .L373
	ldr	r3, .L373
	str	r3, [r2, #104]
	ldr	r3, .L373
	ldr	r2, [r3, #104]
	ldr	r3, .L373
	str	r2, [r3, #100]
	ldr	r3, .L373
	ldr	r3, [r3, #60]
	add	r2, r3, #1
	ldr	r3, .L373
	str	r2, [r3, #60]
	ldmfd	sp, {fp, sp, pc}
.L374:
	.align	2
.L373:
	.word	GSU
	.size	_Z10fx_stb_r10v, .-_Z10fx_stb_r10v
	.align	2
	.type	_Z10fx_stb_r11v, %function
_Z10fx_stb_r11v:
	@ args = 0, pretend = 0, frame = 0
	@ frame_needed = 1, uses_anonymous_args = 0
	mov	ip, sp
	stmfd	sp!, {fp, ip, lr, pc}
	sub	fp, ip, #4
	ldr	r3, .L377
	ldr	r2, [r3, #44]
	ldr	r3, .L377
	str	r2, [r3, #96]
	ldr	r3, .L377
	ldr	r2, [r3, #464]
	ldr	r3, .L377
	ldr	r3, [r3, #44]
	mov	r3, r3, asl #16
	mov	r3, r3, lsr #16
	add	r2, r2, r3
	ldr	r3, .L377
	ldr	r3, [r3, #104]
	ldr	r3, [r3, #0]
	and	r3, r3, #255
	strb	r3, [r2, #0]
	ldr	r3, .L377
	ldr	r3, [r3, #72]
	bic	r2, r3, #4864
	ldr	r3, .L377
	str	r2, [r3, #72]
	ldr	r2, .L377
	ldr	r3, .L377
	str	r3, [r2, #104]
	ldr	r3, .L377
	ldr	r2, [r3, #104]
	ldr	r3, .L377
	str	r2, [r3, #100]
	ldr	r3, .L377
	ldr	r3, [r3, #60]
	add	r2, r3, #1
	ldr	r3, .L377
	str	r2, [r3, #60]
	ldmfd	sp, {fp, sp, pc}
.L378:
	.align	2
.L377:
	.word	GSU
	.size	_Z10fx_stb_r11v, .-_Z10fx_stb_r11v
	.align	2
	.type	_Z7fx_loopv, %function
_Z7fx_loopv:
	@ args = 0, pretend = 0, frame = 0
	@ frame_needed = 1, uses_anonymous_args = 0
	mov	ip, sp
	stmfd	sp!, {fp, ip, lr, pc}
	sub	fp, ip, #4
	ldr	r3, .L384
	ldr	r3, [r3, #48]
	sub	r2, r3, #1
	ldr	r3, .L384
	str	r2, [r3, #48]
	ldr	r3, .L384
	ldr	r2, [r3, #48]
	ldr	r3, .L384
	str	r2, [r3, #120]
	ldr	r3, .L384
	ldr	r2, [r3, #120]
	ldr	r3, .L384
	str	r2, [r3, #116]
	ldr	r3, .L384
	ldr	r3, [r3, #48]
	mov	r3, r3, asl #16
	mov	r3, r3, lsr #16
	cmp	r3, #0
	beq	.L380
	ldr	r3, .L384
	ldr	r2, [r3, #52]
	ldr	r3, .L384
	str	r2, [r3, #60]
	b	.L382
.L380:
	ldr	r3, .L384
	ldr	r3, [r3, #60]
	add	r2, r3, #1
	ldr	r3, .L384
	str	r2, [r3, #60]
.L382:
	ldr	r3, .L384
	ldr	r3, [r3, #72]
	bic	r2, r3, #4864
	ldr	r3, .L384
	str	r2, [r3, #72]
	ldr	r2, .L384
	ldr	r3, .L384
	str	r3, [r2, #104]
	ldr	r3, .L384
	ldr	r2, [r3, #104]
	ldr	r3, .L384
	str	r2, [r3, #100]
	ldmfd	sp, {fp, sp, pc}
.L385:
	.align	2
.L384:
	.word	GSU
	.size	_Z7fx_loopv, .-_Z7fx_loopv
	.align	2
	.type	_Z7fx_alt1v, %function
_Z7fx_alt1v:
	@ args = 0, pretend = 0, frame = 0
	@ frame_needed = 1, uses_anonymous_args = 0
	mov	ip, sp
	stmfd	sp!, {fp, ip, lr, pc}
	sub	fp, ip, #4
	ldr	r3, .L388
	ldr	r3, [r3, #72]
	orr	r2, r3, #256
	ldr	r3, .L388
	str	r2, [r3, #72]
	ldr	r3, .L388
	ldr	r3, [r3, #72]
	bic	r2, r3, #4096
	ldr	r3, .L388
	str	r2, [r3, #72]
	ldr	r3, .L388
	ldr	r3, [r3, #60]
	add	r2, r3, #1
	ldr	r3, .L388
	str	r2, [r3, #60]
	ldmfd	sp, {fp, sp, pc}
.L389:
	.align	2
.L388:
	.word	GSU
	.size	_Z7fx_alt1v, .-_Z7fx_alt1v
	.align	2
	.type	_Z7fx_alt2v, %function
_Z7fx_alt2v:
	@ args = 0, pretend = 0, frame = 0
	@ frame_needed = 1, uses_anonymous_args = 0
	mov	ip, sp
	stmfd	sp!, {fp, ip, lr, pc}
	sub	fp, ip, #4
	ldr	r3, .L392
	ldr	r3, [r3, #72]
	orr	r2, r3, #512
	ldr	r3, .L392
	str	r2, [r3, #72]
	ldr	r3, .L392
	ldr	r3, [r3, #72]
	bic	r2, r3, #4096
	ldr	r3, .L392
	str	r2, [r3, #72]
	ldr	r3, .L392
	ldr	r3, [r3, #60]
	add	r2, r3, #1
	ldr	r3, .L392
	str	r2, [r3, #60]
	ldmfd	sp, {fp, sp, pc}
.L393:
	.align	2
.L392:
	.word	GSU
	.size	_Z7fx_alt2v, .-_Z7fx_alt2v
	.align	2
	.type	_Z7fx_alt3v, %function
_Z7fx_alt3v:
	@ args = 0, pretend = 0, frame = 0
	@ frame_needed = 1, uses_anonymous_args = 0
	mov	ip, sp
	stmfd	sp!, {fp, ip, lr, pc}
	sub	fp, ip, #4
	ldr	r3, .L396
	ldr	r3, [r3, #72]
	orr	r2, r3, #256
	ldr	r3, .L396
	str	r2, [r3, #72]
	ldr	r3, .L396
	ldr	r3, [r3, #72]
	orr	r2, r3, #512
	ldr	r3, .L396
	str	r2, [r3, #72]
	ldr	r3, .L396
	ldr	r3, [r3, #72]
	bic	r2, r3, #4096
	ldr	r3, .L396
	str	r2, [r3, #72]
	ldr	r3, .L396
	ldr	r3, [r3, #60]
	add	r2, r3, #1
	ldr	r3, .L396
	str	r2, [r3, #60]
	ldmfd	sp, {fp, sp, pc}
.L397:
	.align	2
.L396:
	.word	GSU
	.size	_Z7fx_alt3v, .-_Z7fx_alt3v
	.align	2
	.type	_Z9fx_ldw_r0v, %function
_Z9fx_ldw_r0v:
	@ args = 0, pretend = 0, frame = 4
	@ frame_needed = 1, uses_anonymous_args = 0
	mov	ip, sp
	stmfd	sp!, {fp, ip, lr, pc}
	sub	fp, ip, #4
	sub	sp, sp, #4
	ldr	r3, .L402
	ldr	r2, [r3, #0]
	ldr	r3, .L402
	str	r2, [r3, #96]
	ldr	r3, .L402
	ldr	r2, [r3, #464]
	ldr	r3, .L402
	ldr	r3, [r3, #0]
	mov	r3, r3, asl #16
	mov	r3, r3, lsr #16
	add	r3, r2, r3
	ldrb	r3, [r3, #0]	@ zero_extendqisi2
	str	r3, [fp, #-16]
	ldr	r3, .L402
	ldr	r2, [r3, #464]
	ldr	r3, .L402
	ldr	r3, [r3, #0]
	mov	r3, r3, asl #16
	mov	r3, r3, lsr #16
	eor	r3, r3, #1
	mov	r3, r3, asl #16
	mov	r3, r3, lsr #16
	add	r3, r2, r3
	ldrb	r3, [r3, #0]	@ zero_extendqisi2
	mov	r2, r3, asl #8
	ldr	r3, [fp, #-16]
	orr	r3, r3, r2
	str	r3, [fp, #-16]
	ldr	r3, .L402
	ldr	r3, [r3, #60]
	add	r2, r3, #1
	ldr	r3, .L402
	str	r2, [r3, #60]
	ldr	r3, .L402
	ldr	r2, [r3, #100]
	ldr	r3, [fp, #-16]
	str	r3, [r2, #0]
	ldr	r3, .L402
	ldr	r2, [r3, #100]
	ldr	r3, .L402+4
	cmp	r2, r3
	bne	.L399
	ldr	r3, .L402
	ldr	r2, [r3, #468]
	ldr	r3, .L402
	ldr	r3, [r3, #56]
	mov	r3, r3, asl #16
	mov	r3, r3, lsr #16
	add	r3, r2, r3
	ldrb	r3, [r3, #0]	@ zero_extendqisi2
	ldr	r2, .L402
	strb	r3, [r2, #108]
.L399:
	ldr	r3, .L402
	ldr	r3, [r3, #72]
	bic	r2, r3, #4864
	ldr	r3, .L402
	str	r2, [r3, #72]
	ldr	r2, .L402
	ldr	r3, .L402
	str	r3, [r2, #104]
	ldr	r3, .L402
	ldr	r2, [r3, #104]
	ldr	r3, .L402
	str	r2, [r3, #100]
	ldmib	sp, {fp, sp, pc}
.L403:
	.align	2
.L402:
	.word	GSU
	.word	GSU+56
	.size	_Z9fx_ldw_r0v, .-_Z9fx_ldw_r0v
	.align	2
	.type	_Z9fx_ldw_r1v, %function
_Z9fx_ldw_r1v:
	@ args = 0, pretend = 0, frame = 4
	@ frame_needed = 1, uses_anonymous_args = 0
	mov	ip, sp
	stmfd	sp!, {fp, ip, lr, pc}
	sub	fp, ip, #4
	sub	sp, sp, #4
	ldr	r3, .L408
	ldr	r2, [r3, #4]
	ldr	r3, .L408
	str	r2, [r3, #96]
	ldr	r3, .L408
	ldr	r2, [r3, #464]
	ldr	r3, .L408
	ldr	r3, [r3, #4]
	mov	r3, r3, asl #16
	mov	r3, r3, lsr #16
	add	r3, r2, r3
	ldrb	r3, [r3, #0]	@ zero_extendqisi2
	str	r3, [fp, #-16]
	ldr	r3, .L408
	ldr	r2, [r3, #464]
	ldr	r3, .L408
	ldr	r3, [r3, #4]
	mov	r3, r3, asl #16
	mov	r3, r3, lsr #16
	eor	r3, r3, #1
	mov	r3, r3, asl #16
	mov	r3, r3, lsr #16
	add	r3, r2, r3
	ldrb	r3, [r3, #0]	@ zero_extendqisi2
	mov	r2, r3, asl #8
	ldr	r3, [fp, #-16]
	orr	r3, r3, r2
	str	r3, [fp, #-16]
	ldr	r3, .L408
	ldr	r3, [r3, #60]
	add	r2, r3, #1
	ldr	r3, .L408
	str	r2, [r3, #60]
	ldr	r3, .L408
	ldr	r2, [r3, #100]
	ldr	r3, [fp, #-16]
	str	r3, [r2, #0]
	ldr	r3, .L408
	ldr	r2, [r3, #100]
	ldr	r3, .L408+4
	cmp	r2, r3
	bne	.L405
	ldr	r3, .L408
	ldr	r2, [r3, #468]
	ldr	r3, .L408
	ldr	r3, [r3, #56]
	mov	r3, r3, asl #16
	mov	r3, r3, lsr #16
	add	r3, r2, r3
	ldrb	r3, [r3, #0]	@ zero_extendqisi2
	ldr	r2, .L408
	strb	r3, [r2, #108]
.L405:
	ldr	r3, .L408
	ldr	r3, [r3, #72]
	bic	r2, r3, #4864
	ldr	r3, .L408
	str	r2, [r3, #72]
	ldr	r2, .L408
	ldr	r3, .L408
	str	r3, [r2, #104]
	ldr	r3, .L408
	ldr	r2, [r3, #104]
	ldr	r3, .L408
	str	r2, [r3, #100]
	ldmib	sp, {fp, sp, pc}
.L409:
	.align	2
.L408:
	.word	GSU
	.word	GSU+56
	.size	_Z9fx_ldw_r1v, .-_Z9fx_ldw_r1v
	.align	2
	.type	_Z9fx_ldw_r2v, %function
_Z9fx_ldw_r2v:
	@ args = 0, pretend = 0, frame = 4
	@ frame_needed = 1, uses_anonymous_args = 0
	mov	ip, sp
	stmfd	sp!, {fp, ip, lr, pc}
	sub	fp, ip, #4
	sub	sp, sp, #4
	ldr	r3, .L414
	ldr	r2, [r3, #8]
	ldr	r3, .L414
	str	r2, [r3, #96]
	ldr	r3, .L414
	ldr	r2, [r3, #464]
	ldr	r3, .L414
	ldr	r3, [r3, #8]
	mov	r3, r3, asl #16
	mov	r3, r3, lsr #16
	add	r3, r2, r3
	ldrb	r3, [r3, #0]	@ zero_extendqisi2
	str	r3, [fp, #-16]
	ldr	r3, .L414
	ldr	r2, [r3, #464]
	ldr	r3, .L414
	ldr	r3, [r3, #8]
	mov	r3, r3, asl #16
	mov	r3, r3, lsr #16
	eor	r3, r3, #1
	mov	r3, r3, asl #16
	mov	r3, r3, lsr #16
	add	r3, r2, r3
	ldrb	r3, [r3, #0]	@ zero_extendqisi2
	mov	r2, r3, asl #8
	ldr	r3, [fp, #-16]
	orr	r3, r3, r2
	str	r3, [fp, #-16]
	ldr	r3, .L414
	ldr	r3, [r3, #60]
	add	r2, r3, #1
	ldr	r3, .L414
	str	r2, [r3, #60]
	ldr	r3, .L414
	ldr	r2, [r3, #100]
	ldr	r3, [fp, #-16]
	str	r3, [r2, #0]
	ldr	r3, .L414
	ldr	r2, [r3, #100]
	ldr	r3, .L414+4
	cmp	r2, r3
	bne	.L411
	ldr	r3, .L414
	ldr	r2, [r3, #468]
	ldr	r3, .L414
	ldr	r3, [r3, #56]
	mov	r3, r3, asl #16
	mov	r3, r3, lsr #16
	add	r3, r2, r3
	ldrb	r3, [r3, #0]	@ zero_extendqisi2
	ldr	r2, .L414
	strb	r3, [r2, #108]
.L411:
	ldr	r3, .L414
	ldr	r3, [r3, #72]
	bic	r2, r3, #4864
	ldr	r3, .L414
	str	r2, [r3, #72]
	ldr	r2, .L414
	ldr	r3, .L414
	str	r3, [r2, #104]
	ldr	r3, .L414
	ldr	r2, [r3, #104]
	ldr	r3, .L414
	str	r2, [r3, #100]
	ldmib	sp, {fp, sp, pc}
.L415:
	.align	2
.L414:
	.word	GSU
	.word	GSU+56
	.size	_Z9fx_ldw_r2v, .-_Z9fx_ldw_r2v
	.align	2
	.type	_Z9fx_ldw_r3v, %function
_Z9fx_ldw_r3v:
	@ args = 0, pretend = 0, frame = 4
	@ frame_needed = 1, uses_anonymous_args = 0
	mov	ip, sp
	stmfd	sp!, {fp, ip, lr, pc}
	sub	fp, ip, #4
	sub	sp, sp, #4
	ldr	r3, .L420
	ldr	r2, [r3, #12]
	ldr	r3, .L420
	str	r2, [r3, #96]
	ldr	r3, .L420
	ldr	r2, [r3, #464]
	ldr	r3, .L420
	ldr	r3, [r3, #12]
	mov	r3, r3, asl #16
	mov	r3, r3, lsr #16
	add	r3, r2, r3
	ldrb	r3, [r3, #0]	@ zero_extendqisi2
	str	r3, [fp, #-16]
	ldr	r3, .L420
	ldr	r2, [r3, #464]
	ldr	r3, .L420
	ldr	r3, [r3, #12]
	mov	r3, r3, asl #16
	mov	r3, r3, lsr #16
	eor	r3, r3, #1
	mov	r3, r3, asl #16
	mov	r3, r3, lsr #16
	add	r3, r2, r3
	ldrb	r3, [r3, #0]	@ zero_extendqisi2
	mov	r2, r3, asl #8
	ldr	r3, [fp, #-16]
	orr	r3, r3, r2
	str	r3, [fp, #-16]
	ldr	r3, .L420
	ldr	r3, [r3, #60]
	add	r2, r3, #1
	ldr	r3, .L420
	str	r2, [r3, #60]
	ldr	r3, .L420
	ldr	r2, [r3, #100]
	ldr	r3, [fp, #-16]
	str	r3, [r2, #0]
	ldr	r3, .L420
	ldr	r2, [r3, #100]
	ldr	r3, .L420+4
	cmp	r2, r3
	bne	.L417
	ldr	r3, .L420
	ldr	r2, [r3, #468]
	ldr	r3, .L420
	ldr	r3, [r3, #56]
	mov	r3, r3, asl #16
	mov	r3, r3, lsr #16
	add	r3, r2, r3
	ldrb	r3, [r3, #0]	@ zero_extendqisi2
	ldr	r2, .L420
	strb	r3, [r2, #108]
.L417:
	ldr	r3, .L420
	ldr	r3, [r3, #72]
	bic	r2, r3, #4864
	ldr	r3, .L420
	str	r2, [r3, #72]
	ldr	r2, .L420
	ldr	r3, .L420
	str	r3, [r2, #104]
	ldr	r3, .L420
	ldr	r2, [r3, #104]
	ldr	r3, .L420
	str	r2, [r3, #100]
	ldmib	sp, {fp, sp, pc}
.L421:
	.align	2
.L420:
	.word	GSU
	.word	GSU+56
	.size	_Z9fx_ldw_r3v, .-_Z9fx_ldw_r3v
	.align	2
	.type	_Z9fx_ldw_r4v, %function
_Z9fx_ldw_r4v:
	@ args = 0, pretend = 0, frame = 4
	@ frame_needed = 1, uses_anonymous_args = 0
	mov	ip, sp
	stmfd	sp!, {fp, ip, lr, pc}
	sub	fp, ip, #4
	sub	sp, sp, #4
	ldr	r3, .L426
	ldr	r2, [r3, #16]
	ldr	r3, .L426
	str	r2, [r3, #96]
	ldr	r3, .L426
	ldr	r2, [r3, #464]
	ldr	r3, .L426
	ldr	r3, [r3, #16]
	mov	r3, r3, asl #16
	mov	r3, r3, lsr #16
	add	r3, r2, r3
	ldrb	r3, [r3, #0]	@ zero_extendqisi2
	str	r3, [fp, #-16]
	ldr	r3, .L426
	ldr	r2, [r3, #464]
	ldr	r3, .L426
	ldr	r3, [r3, #16]
	mov	r3, r3, asl #16
	mov	r3, r3, lsr #16
	eor	r3, r3, #1
	mov	r3, r3, asl #16
	mov	r3, r3, lsr #16
	add	r3, r2, r3
	ldrb	r3, [r3, #0]	@ zero_extendqisi2
	mov	r2, r3, asl #8
	ldr	r3, [fp, #-16]
	orr	r3, r3, r2
	str	r3, [fp, #-16]
	ldr	r3, .L426
	ldr	r3, [r3, #60]
	add	r2, r3, #1
	ldr	r3, .L426
	str	r2, [r3, #60]
	ldr	r3, .L426
	ldr	r2, [r3, #100]
	ldr	r3, [fp, #-16]
	str	r3, [r2, #0]
	ldr	r3, .L426
	ldr	r2, [r3, #100]
	ldr	r3, .L426+4
	cmp	r2, r3
	bne	.L423
	ldr	r3, .L426
	ldr	r2, [r3, #468]
	ldr	r3, .L426
	ldr	r3, [r3, #56]
	mov	r3, r3, asl #16
	mov	r3, r3, lsr #16
	add	r3, r2, r3
	ldrb	r3, [r3, #0]	@ zero_extendqisi2
	ldr	r2, .L426
	strb	r3, [r2, #108]
.L423:
	ldr	r3, .L426
	ldr	r3, [r3, #72]
	bic	r2, r3, #4864
	ldr	r3, .L426
	str	r2, [r3, #72]
	ldr	r2, .L426
	ldr	r3, .L426
	str	r3, [r2, #104]
	ldr	r3, .L426
	ldr	r2, [r3, #104]
	ldr	r3, .L426
	str	r2, [r3, #100]
	ldmib	sp, {fp, sp, pc}
.L427:
	.align	2
.L426:
	.word	GSU
	.word	GSU+56
	.size	_Z9fx_ldw_r4v, .-_Z9fx_ldw_r4v
	.align	2
	.type	_Z9fx_ldw_r5v, %function
_Z9fx_ldw_r5v:
	@ args = 0, pretend = 0, frame = 4
	@ frame_needed = 1, uses_anonymous_args = 0
	mov	ip, sp
	stmfd	sp!, {fp, ip, lr, pc}
	sub	fp, ip, #4
	sub	sp, sp, #4
	ldr	r3, .L432
	ldr	r2, [r3, #20]
	ldr	r3, .L432
	str	r2, [r3, #96]
	ldr	r3, .L432
	ldr	r2, [r3, #464]
	ldr	r3, .L432
	ldr	r3, [r3, #20]
	mov	r3, r3, asl #16
	mov	r3, r3, lsr #16
	add	r3, r2, r3
	ldrb	r3, [r3, #0]	@ zero_extendqisi2
	str	r3, [fp, #-16]
	ldr	r3, .L432
	ldr	r2, [r3, #464]
	ldr	r3, .L432
	ldr	r3, [r3, #20]
	mov	r3, r3, asl #16
	mov	r3, r3, lsr #16
	eor	r3, r3, #1
	mov	r3, r3, asl #16
	mov	r3, r3, lsr #16
	add	r3, r2, r3
	ldrb	r3, [r3, #0]	@ zero_extendqisi2
	mov	r2, r3, asl #8
	ldr	r3, [fp, #-16]
	orr	r3, r3, r2
	str	r3, [fp, #-16]
	ldr	r3, .L432
	ldr	r3, [r3, #60]
	add	r2, r3, #1
	ldr	r3, .L432
	str	r2, [r3, #60]
	ldr	r3, .L432
	ldr	r2, [r3, #100]
	ldr	r3, [fp, #-16]
	str	r3, [r2, #0]
	ldr	r3, .L432
	ldr	r2, [r3, #100]
	ldr	r3, .L432+4
	cmp	r2, r3
	bne	.L429
	ldr	r3, .L432
	ldr	r2, [r3, #468]
	ldr	r3, .L432
	ldr	r3, [r3, #56]
	mov	r3, r3, asl #16
	mov	r3, r3, lsr #16
	add	r3, r2, r3
	ldrb	r3, [r3, #0]	@ zero_extendqisi2
	ldr	r2, .L432
	strb	r3, [r2, #108]
.L429:
	ldr	r3, .L432
	ldr	r3, [r3, #72]
	bic	r2, r3, #4864
	ldr	r3, .L432
	str	r2, [r3, #72]
	ldr	r2, .L432
	ldr	r3, .L432
	str	r3, [r2, #104]
	ldr	r3, .L432
	ldr	r2, [r3, #104]
	ldr	r3, .L432
	str	r2, [r3, #100]
	ldmib	sp, {fp, sp, pc}
.L433:
	.align	2
.L432:
	.word	GSU
	.word	GSU+56
	.size	_Z9fx_ldw_r5v, .-_Z9fx_ldw_r5v
	.align	2
	.type	_Z9fx_ldw_r6v, %function
_Z9fx_ldw_r6v:
	@ args = 0, pretend = 0, frame = 4
	@ frame_needed = 1, uses_anonymous_args = 0
	mov	ip, sp
	stmfd	sp!, {fp, ip, lr, pc}
	sub	fp, ip, #4
	sub	sp, sp, #4
	ldr	r3, .L438
	ldr	r2, [r3, #24]
	ldr	r3, .L438
	str	r2, [r3, #96]
	ldr	r3, .L438
	ldr	r2, [r3, #464]
	ldr	r3, .L438
	ldr	r3, [r3, #24]
	mov	r3, r3, asl #16
	mov	r3, r3, lsr #16
	add	r3, r2, r3
	ldrb	r3, [r3, #0]	@ zero_extendqisi2
	str	r3, [fp, #-16]
	ldr	r3, .L438
	ldr	r2, [r3, #464]
	ldr	r3, .L438
	ldr	r3, [r3, #24]
	mov	r3, r3, asl #16
	mov	r3, r3, lsr #16
	eor	r3, r3, #1
	mov	r3, r3, asl #16
	mov	r3, r3, lsr #16
	add	r3, r2, r3
	ldrb	r3, [r3, #0]	@ zero_extendqisi2
	mov	r2, r3, asl #8
	ldr	r3, [fp, #-16]
	orr	r3, r3, r2
	str	r3, [fp, #-16]
	ldr	r3, .L438
	ldr	r3, [r3, #60]
	add	r2, r3, #1
	ldr	r3, .L438
	str	r2, [r3, #60]
	ldr	r3, .L438
	ldr	r2, [r3, #100]
	ldr	r3, [fp, #-16]
	str	r3, [r2, #0]
	ldr	r3, .L438
	ldr	r2, [r3, #100]
	ldr	r3, .L438+4
	cmp	r2, r3
	bne	.L435
	ldr	r3, .L438
	ldr	r2, [r3, #468]
	ldr	r3, .L438
	ldr	r3, [r3, #56]
	mov	r3, r3, asl #16
	mov	r3, r3, lsr #16
	add	r3, r2, r3
	ldrb	r3, [r3, #0]	@ zero_extendqisi2
	ldr	r2, .L438
	strb	r3, [r2, #108]
.L435:
	ldr	r3, .L438
	ldr	r3, [r3, #72]
	bic	r2, r3, #4864
	ldr	r3, .L438
	str	r2, [r3, #72]
	ldr	r2, .L438
	ldr	r3, .L438
	str	r3, [r2, #104]
	ldr	r3, .L438
	ldr	r2, [r3, #104]
	ldr	r3, .L438
	str	r2, [r3, #100]
	ldmib	sp, {fp, sp, pc}
.L439:
	.align	2
.L438:
	.word	GSU
	.word	GSU+56
	.size	_Z9fx_ldw_r6v, .-_Z9fx_ldw_r6v
	.align	2
	.type	_Z9fx_ldw_r7v, %function
_Z9fx_ldw_r7v:
	@ args = 0, pretend = 0, frame = 4
	@ frame_needed = 1, uses_anonymous_args = 0
	mov	ip, sp
	stmfd	sp!, {fp, ip, lr, pc}
	sub	fp, ip, #4
	sub	sp, sp, #4
	ldr	r3, .L444
	ldr	r2, [r3, #28]
	ldr	r3, .L444
	str	r2, [r3, #96]
	ldr	r3, .L444
	ldr	r2, [r3, #464]
	ldr	r3, .L444
	ldr	r3, [r3, #28]
	mov	r3, r3, asl #16
	mov	r3, r3, lsr #16
	add	r3, r2, r3
	ldrb	r3, [r3, #0]	@ zero_extendqisi2
	str	r3, [fp, #-16]
	ldr	r3, .L444
	ldr	r2, [r3, #464]
	ldr	r3, .L444
	ldr	r3, [r3, #28]
	mov	r3, r3, asl #16
	mov	r3, r3, lsr #16
	eor	r3, r3, #1
	mov	r3, r3, asl #16
	mov	r3, r3, lsr #16
	add	r3, r2, r3
	ldrb	r3, [r3, #0]	@ zero_extendqisi2
	mov	r2, r3, asl #8
	ldr	r3, [fp, #-16]
	orr	r3, r3, r2
	str	r3, [fp, #-16]
	ldr	r3, .L444
	ldr	r3, [r3, #60]
	add	r2, r3, #1
	ldr	r3, .L444
	str	r2, [r3, #60]
	ldr	r3, .L444
	ldr	r2, [r3, #100]
	ldr	r3, [fp, #-16]
	str	r3, [r2, #0]
	ldr	r3, .L444
	ldr	r2, [r3, #100]
	ldr	r3, .L444+4
	cmp	r2, r3
	bne	.L441
	ldr	r3, .L444
	ldr	r2, [r3, #468]
	ldr	r3, .L444
	ldr	r3, [r3, #56]
	mov	r3, r3, asl #16
	mov	r3, r3, lsr #16
	add	r3, r2, r3
	ldrb	r3, [r3, #0]	@ zero_extendqisi2
	ldr	r2, .L444
	strb	r3, [r2, #108]
.L441:
	ldr	r3, .L444
	ldr	r3, [r3, #72]
	bic	r2, r3, #4864
	ldr	r3, .L444
	str	r2, [r3, #72]
	ldr	r2, .L444
	ldr	r3, .L444
	str	r3, [r2, #104]
	ldr	r3, .L444
	ldr	r2, [r3, #104]
	ldr	r3, .L444
	str	r2, [r3, #100]
	ldmib	sp, {fp, sp, pc}
.L445:
	.align	2
.L444:
	.word	GSU
	.word	GSU+56
	.size	_Z9fx_ldw_r7v, .-_Z9fx_ldw_r7v
	.align	2
	.type	_Z9fx_ldw_r8v, %function
_Z9fx_ldw_r8v:
	@ args = 0, pretend = 0, frame = 4
	@ frame_needed = 1, uses_anonymous_args = 0
	mov	ip, sp
	stmfd	sp!, {fp, ip, lr, pc}
	sub	fp, ip, #4
	sub	sp, sp, #4
	ldr	r3, .L450
	ldr	r2, [r3, #32]
	ldr	r3, .L450
	str	r2, [r3, #96]
	ldr	r3, .L450
	ldr	r2, [r3, #464]
	ldr	r3, .L450
	ldr	r3, [r3, #32]
	mov	r3, r3, asl #16
	mov	r3, r3, lsr #16
	add	r3, r2, r3
	ldrb	r3, [r3, #0]	@ zero_extendqisi2
	str	r3, [fp, #-16]
	ldr	r3, .L450
	ldr	r2, [r3, #464]
	ldr	r3, .L450
	ldr	r3, [r3, #32]
	mov	r3, r3, asl #16
	mov	r3, r3, lsr #16
	eor	r3, r3, #1
	mov	r3, r3, asl #16
	mov	r3, r3, lsr #16
	add	r3, r2, r3
	ldrb	r3, [r3, #0]	@ zero_extendqisi2
	mov	r2, r3, asl #8
	ldr	r3, [fp, #-16]
	orr	r3, r3, r2
	str	r3, [fp, #-16]
	ldr	r3, .L450
	ldr	r3, [r3, #60]
	add	r2, r3, #1
	ldr	r3, .L450
	str	r2, [r3, #60]
	ldr	r3, .L450
	ldr	r2, [r3, #100]
	ldr	r3, [fp, #-16]
	str	r3, [r2, #0]
	ldr	r3, .L450
	ldr	r2, [r3, #100]
	ldr	r3, .L450+4
	cmp	r2, r3
	bne	.L447
	ldr	r3, .L450
	ldr	r2, [r3, #468]
	ldr	r3, .L450
	ldr	r3, [r3, #56]
	mov	r3, r3, asl #16
	mov	r3, r3, lsr #16
	add	r3, r2, r3
	ldrb	r3, [r3, #0]	@ zero_extendqisi2
	ldr	r2, .L450
	strb	r3, [r2, #108]
.L447:
	ldr	r3, .L450
	ldr	r3, [r3, #72]
	bic	r2, r3, #4864
	ldr	r3, .L450
	str	r2, [r3, #72]
	ldr	r2, .L450
	ldr	r3, .L450
	str	r3, [r2, #104]
	ldr	r3, .L450
	ldr	r2, [r3, #104]
	ldr	r3, .L450
	str	r2, [r3, #100]
	ldmib	sp, {fp, sp, pc}
.L451:
	.align	2
.L450:
	.word	GSU
	.word	GSU+56
	.size	_Z9fx_ldw_r8v, .-_Z9fx_ldw_r8v
	.align	2
	.type	_Z9fx_ldw_r9v, %function
_Z9fx_ldw_r9v:
	@ args = 0, pretend = 0, frame = 4
	@ frame_needed = 1, uses_anonymous_args = 0
	mov	ip, sp
	stmfd	sp!, {fp, ip, lr, pc}
	sub	fp, ip, #4
	sub	sp, sp, #4
	ldr	r3, .L456
	ldr	r2, [r3, #36]
	ldr	r3, .L456
	str	r2, [r3, #96]
	ldr	r3, .L456
	ldr	r2, [r3, #464]
	ldr	r3, .L456
	ldr	r3, [r3, #36]
	mov	r3, r3, asl #16
	mov	r3, r3, lsr #16
	add	r3, r2, r3
	ldrb	r3, [r3, #0]	@ zero_extendqisi2
	str	r3, [fp, #-16]
	ldr	r3, .L456
	ldr	r2, [r3, #464]
	ldr	r3, .L456
	ldr	r3, [r3, #36]
	mov	r3, r3, asl #16
	mov	r3, r3, lsr #16
	eor	r3, r3, #1
	mov	r3, r3, asl #16
	mov	r3, r3, lsr #16
	add	r3, r2, r3
	ldrb	r3, [r3, #0]	@ zero_extendqisi2
	mov	r2, r3, asl #8
	ldr	r3, [fp, #-16]
	orr	r3, r3, r2
	str	r3, [fp, #-16]
	ldr	r3, .L456
	ldr	r3, [r3, #60]
	add	r2, r3, #1
	ldr	r3, .L456
	str	r2, [r3, #60]
	ldr	r3, .L456
	ldr	r2, [r3, #100]
	ldr	r3, [fp, #-16]
	str	r3, [r2, #0]
	ldr	r3, .L456
	ldr	r2, [r3, #100]
	ldr	r3, .L456+4
	cmp	r2, r3
	bne	.L453
	ldr	r3, .L456
	ldr	r2, [r3, #468]
	ldr	r3, .L456
	ldr	r3, [r3, #56]
	mov	r3, r3, asl #16
	mov	r3, r3, lsr #16
	add	r3, r2, r3
	ldrb	r3, [r3, #0]	@ zero_extendqisi2
	ldr	r2, .L456
	strb	r3, [r2, #108]
.L453:
	ldr	r3, .L456
	ldr	r3, [r3, #72]
	bic	r2, r3, #4864
	ldr	r3, .L456
	str	r2, [r3, #72]
	ldr	r2, .L456
	ldr	r3, .L456
	str	r3, [r2, #104]
	ldr	r3, .L456
	ldr	r2, [r3, #104]
	ldr	r3, .L456
	str	r2, [r3, #100]
	ldmib	sp, {fp, sp, pc}
.L457:
	.align	2
.L456:
	.word	GSU
	.word	GSU+56
	.size	_Z9fx_ldw_r9v, .-_Z9fx_ldw_r9v
	.align	2
	.type	_Z10fx_ldw_r10v, %function
_Z10fx_ldw_r10v:
	@ args = 0, pretend = 0, frame = 4
	@ frame_needed = 1, uses_anonymous_args = 0
	mov	ip, sp
	stmfd	sp!, {fp, ip, lr, pc}
	sub	fp, ip, #4
	sub	sp, sp, #4
	ldr	r3, .L462
	ldr	r2, [r3, #40]
	ldr	r3, .L462
	str	r2, [r3, #96]
	ldr	r3, .L462
	ldr	r2, [r3, #464]
	ldr	r3, .L462
	ldr	r3, [r3, #40]
	mov	r3, r3, asl #16
	mov	r3, r3, lsr #16
	add	r3, r2, r3
	ldrb	r3, [r3, #0]	@ zero_extendqisi2
	str	r3, [fp, #-16]
	ldr	r3, .L462
	ldr	r2, [r3, #464]
	ldr	r3, .L462
	ldr	r3, [r3, #40]
	mov	r3, r3, asl #16
	mov	r3, r3, lsr #16
	eor	r3, r3, #1
	mov	r3, r3, asl #16
	mov	r3, r3, lsr #16
	add	r3, r2, r3
	ldrb	r3, [r3, #0]	@ zero_extendqisi2
	mov	r2, r3, asl #8
	ldr	r3, [fp, #-16]
	orr	r3, r3, r2
	str	r3, [fp, #-16]
	ldr	r3, .L462
	ldr	r3, [r3, #60]
	add	r2, r3, #1
	ldr	r3, .L462
	str	r2, [r3, #60]
	ldr	r3, .L462
	ldr	r2, [r3, #100]
	ldr	r3, [fp, #-16]
	str	r3, [r2, #0]
	ldr	r3, .L462
	ldr	r2, [r3, #100]
	ldr	r3, .L462+4
	cmp	r2, r3
	bne	.L459
	ldr	r3, .L462
	ldr	r2, [r3, #468]
	ldr	r3, .L462
	ldr	r3, [r3, #56]
	mov	r3, r3, asl #16
	mov	r3, r3, lsr #16
	add	r3, r2, r3
	ldrb	r3, [r3, #0]	@ zero_extendqisi2
	ldr	r2, .L462
	strb	r3, [r2, #108]
.L459:
	ldr	r3, .L462
	ldr	r3, [r3, #72]
	bic	r2, r3, #4864
	ldr	r3, .L462
	str	r2, [r3, #72]
	ldr	r2, .L462
	ldr	r3, .L462
	str	r3, [r2, #104]
	ldr	r3, .L462
	ldr	r2, [r3, #104]
	ldr	r3, .L462
	str	r2, [r3, #100]
	ldmib	sp, {fp, sp, pc}
.L463:
	.align	2
.L462:
	.word	GSU
	.word	GSU+56
	.size	_Z10fx_ldw_r10v, .-_Z10fx_ldw_r10v
	.align	2
	.type	_Z10fx_ldw_r11v, %function
_Z10fx_ldw_r11v:
	@ args = 0, pretend = 0, frame = 4
	@ frame_needed = 1, uses_anonymous_args = 0
	mov	ip, sp
	stmfd	sp!, {fp, ip, lr, pc}
	sub	fp, ip, #4
	sub	sp, sp, #4
	ldr	r3, .L468
	ldr	r2, [r3, #44]
	ldr	r3, .L468
	str	r2, [r3, #96]
	ldr	r3, .L468
	ldr	r2, [r3, #464]
	ldr	r3, .L468
	ldr	r3, [r3, #44]
	mov	r3, r3, asl #16
	mov	r3, r3, lsr #16
	add	r3, r2, r3
	ldrb	r3, [r3, #0]	@ zero_extendqisi2
	str	r3, [fp, #-16]
	ldr	r3, .L468
	ldr	r2, [r3, #464]
	ldr	r3, .L468
	ldr	r3, [r3, #44]
	mov	r3, r3, asl #16
	mov	r3, r3, lsr #16
	eor	r3, r3, #1
	mov	r3, r3, asl #16
	mov	r3, r3, lsr #16
	add	r3, r2, r3
	ldrb	r3, [r3, #0]	@ zero_extendqisi2
	mov	r2, r3, asl #8
	ldr	r3, [fp, #-16]
	orr	r3, r3, r2
	str	r3, [fp, #-16]
	ldr	r3, .L468
	ldr	r3, [r3, #60]
	add	r2, r3, #1
	ldr	r3, .L468
	str	r2, [r3, #60]
	ldr	r3, .L468
	ldr	r2, [r3, #100]
	ldr	r3, [fp, #-16]
	str	r3, [r2, #0]
	ldr	r3, .L468
	ldr	r2, [r3, #100]
	ldr	r3, .L468+4
	cmp	r2, r3
	bne	.L465
	ldr	r3, .L468
	ldr	r2, [r3, #468]
	ldr	r3, .L468
	ldr	r3, [r3, #56]
	mov	r3, r3, asl #16
	mov	r3, r3, lsr #16
	add	r3, r2, r3
	ldrb	r3, [r3, #0]	@ zero_extendqisi2
	ldr	r2, .L468
	strb	r3, [r2, #108]
.L465:
	ldr	r3, .L468
	ldr	r3, [r3, #72]
	bic	r2, r3, #4864
	ldr	r3, .L468
	str	r2, [r3, #72]
	ldr	r2, .L468
	ldr	r3, .L468
	str	r3, [r2, #104]
	ldr	r3, .L468
	ldr	r2, [r3, #104]
	ldr	r3, .L468
	str	r2, [r3, #100]
	ldmib	sp, {fp, sp, pc}
.L469:
	.align	2
.L468:
	.word	GSU
	.word	GSU+56
	.size	_Z10fx_ldw_r11v, .-_Z10fx_ldw_r11v
	.align	2
	.type	_Z9fx_ldb_r0v, %function
_Z9fx_ldb_r0v:
	@ args = 0, pretend = 0, frame = 4
	@ frame_needed = 1, uses_anonymous_args = 0
	mov	ip, sp
	stmfd	sp!, {fp, ip, lr, pc}
	sub	fp, ip, #4
	sub	sp, sp, #4
	ldr	r3, .L474
	ldr	r2, [r3, #0]
	ldr	r3, .L474
	str	r2, [r3, #96]
	ldr	r3, .L474
	ldr	r2, [r3, #464]
	ldr	r3, .L474
	ldr	r3, [r3, #0]
	mov	r3, r3, asl #16
	mov	r3, r3, lsr #16
	add	r3, r2, r3
	ldrb	r3, [r3, #0]	@ zero_extendqisi2
	str	r3, [fp, #-16]
	ldr	r3, .L474
	ldr	r3, [r3, #60]
	add	r2, r3, #1
	ldr	r3, .L474
	str	r2, [r3, #60]
	ldr	r3, .L474
	ldr	r2, [r3, #100]
	ldr	r3, [fp, #-16]
	str	r3, [r2, #0]
	ldr	r3, .L474
	ldr	r2, [r3, #100]
	ldr	r3, .L474+4
	cmp	r2, r3
	bne	.L471
	ldr	r3, .L474
	ldr	r2, [r3, #468]
	ldr	r3, .L474
	ldr	r3, [r3, #56]
	mov	r3, r3, asl #16
	mov	r3, r3, lsr #16
	add	r3, r2, r3
	ldrb	r3, [r3, #0]	@ zero_extendqisi2
	ldr	r2, .L474
	strb	r3, [r2, #108]
.L471:
	ldr	r3, .L474
	ldr	r3, [r3, #72]
	bic	r2, r3, #4864
	ldr	r3, .L474
	str	r2, [r3, #72]
	ldr	r2, .L474
	ldr	r3, .L474
	str	r3, [r2, #104]
	ldr	r3, .L474
	ldr	r2, [r3, #104]
	ldr	r3, .L474
	str	r2, [r3, #100]
	ldmib	sp, {fp, sp, pc}
.L475:
	.align	2
.L474:
	.word	GSU
	.word	GSU+56
	.size	_Z9fx_ldb_r0v, .-_Z9fx_ldb_r0v
	.align	2
	.type	_Z9fx_ldb_r1v, %function
_Z9fx_ldb_r1v:
	@ args = 0, pretend = 0, frame = 4
	@ frame_needed = 1, uses_anonymous_args = 0
	mov	ip, sp
	stmfd	sp!, {fp, ip, lr, pc}
	sub	fp, ip, #4
	sub	sp, sp, #4
	ldr	r3, .L480
	ldr	r2, [r3, #4]
	ldr	r3, .L480
	str	r2, [r3, #96]
	ldr	r3, .L480
	ldr	r2, [r3, #464]
	ldr	r3, .L480
	ldr	r3, [r3, #4]
	mov	r3, r3, asl #16
	mov	r3, r3, lsr #16
	add	r3, r2, r3
	ldrb	r3, [r3, #0]	@ zero_extendqisi2
	str	r3, [fp, #-16]
	ldr	r3, .L480
	ldr	r3, [r3, #60]
	add	r2, r3, #1
	ldr	r3, .L480
	str	r2, [r3, #60]
	ldr	r3, .L480
	ldr	r2, [r3, #100]
	ldr	r3, [fp, #-16]
	str	r3, [r2, #0]
	ldr	r3, .L480
	ldr	r2, [r3, #100]
	ldr	r3, .L480+4
	cmp	r2, r3
	bne	.L477
	ldr	r3, .L480
	ldr	r2, [r3, #468]
	ldr	r3, .L480
	ldr	r3, [r3, #56]
	mov	r3, r3, asl #16
	mov	r3, r3, lsr #16
	add	r3, r2, r3
	ldrb	r3, [r3, #0]	@ zero_extendqisi2
	ldr	r2, .L480
	strb	r3, [r2, #108]
.L477:
	ldr	r3, .L480
	ldr	r3, [r3, #72]
	bic	r2, r3, #4864
	ldr	r3, .L480
	str	r2, [r3, #72]
	ldr	r2, .L480
	ldr	r3, .L480
	str	r3, [r2, #104]
	ldr	r3, .L480
	ldr	r2, [r3, #104]
	ldr	r3, .L480
	str	r2, [r3, #100]
	ldmib	sp, {fp, sp, pc}
.L481:
	.align	2
.L480:
	.word	GSU
	.word	GSU+56
	.size	_Z9fx_ldb_r1v, .-_Z9fx_ldb_r1v
	.align	2
	.type	_Z9fx_ldb_r2v, %function
_Z9fx_ldb_r2v:
	@ args = 0, pretend = 0, frame = 4
	@ frame_needed = 1, uses_anonymous_args = 0
	mov	ip, sp
	stmfd	sp!, {fp, ip, lr, pc}
	sub	fp, ip, #4
	sub	sp, sp, #4
	ldr	r3, .L486
	ldr	r2, [r3, #8]
	ldr	r3, .L486
	str	r2, [r3, #96]
	ldr	r3, .L486
	ldr	r2, [r3, #464]
	ldr	r3, .L486
	ldr	r3, [r3, #8]
	mov	r3, r3, asl #16
	mov	r3, r3, lsr #16
	add	r3, r2, r3
	ldrb	r3, [r3, #0]	@ zero_extendqisi2
	str	r3, [fp, #-16]
	ldr	r3, .L486
	ldr	r3, [r3, #60]
	add	r2, r3, #1
	ldr	r3, .L486
	str	r2, [r3, #60]
	ldr	r3, .L486
	ldr	r2, [r3, #100]
	ldr	r3, [fp, #-16]
	str	r3, [r2, #0]
	ldr	r3, .L486
	ldr	r2, [r3, #100]
	ldr	r3, .L486+4
	cmp	r2, r3
	bne	.L483
	ldr	r3, .L486
	ldr	r2, [r3, #468]
	ldr	r3, .L486
	ldr	r3, [r3, #56]
	mov	r3, r3, asl #16
	mov	r3, r3, lsr #16
	add	r3, r2, r3
	ldrb	r3, [r3, #0]	@ zero_extendqisi2
	ldr	r2, .L486
	strb	r3, [r2, #108]
.L483:
	ldr	r3, .L486
	ldr	r3, [r3, #72]
	bic	r2, r3, #4864
	ldr	r3, .L486
	str	r2, [r3, #72]
	ldr	r2, .L486
	ldr	r3, .L486
	str	r3, [r2, #104]
	ldr	r3, .L486
	ldr	r2, [r3, #104]
	ldr	r3, .L486
	str	r2, [r3, #100]
	ldmib	sp, {fp, sp, pc}
.L487:
	.align	2
.L486:
	.word	GSU
	.word	GSU+56
	.size	_Z9fx_ldb_r2v, .-_Z9fx_ldb_r2v
	.align	2
	.type	_Z9fx_ldb_r3v, %function
_Z9fx_ldb_r3v:
	@ args = 0, pretend = 0, frame = 4
	@ frame_needed = 1, uses_anonymous_args = 0
	mov	ip, sp
	stmfd	sp!, {fp, ip, lr, pc}
	sub	fp, ip, #4
	sub	sp, sp, #4
	ldr	r3, .L492
	ldr	r2, [r3, #12]
	ldr	r3, .L492
	str	r2, [r3, #96]
	ldr	r3, .L492
	ldr	r2, [r3, #464]
	ldr	r3, .L492
	ldr	r3, [r3, #12]
	mov	r3, r3, asl #16
	mov	r3, r3, lsr #16
	add	r3, r2, r3
	ldrb	r3, [r3, #0]	@ zero_extendqisi2
	str	r3, [fp, #-16]
	ldr	r3, .L492
	ldr	r3, [r3, #60]
	add	r2, r3, #1
	ldr	r3, .L492
	str	r2, [r3, #60]
	ldr	r3, .L492
	ldr	r2, [r3, #100]
	ldr	r3, [fp, #-16]
	str	r3, [r2, #0]
	ldr	r3, .L492
	ldr	r2, [r3, #100]
	ldr	r3, .L492+4
	cmp	r2, r3
	bne	.L489
	ldr	r3, .L492
	ldr	r2, [r3, #468]
	ldr	r3, .L492
	ldr	r3, [r3, #56]
	mov	r3, r3, asl #16
	mov	r3, r3, lsr #16
	add	r3, r2, r3
	ldrb	r3, [r3, #0]	@ zero_extendqisi2
	ldr	r2, .L492
	strb	r3, [r2, #108]
.L489:
	ldr	r3, .L492
	ldr	r3, [r3, #72]
	bic	r2, r3, #4864
	ldr	r3, .L492
	str	r2, [r3, #72]
	ldr	r2, .L492
	ldr	r3, .L492
	str	r3, [r2, #104]
	ldr	r3, .L492
	ldr	r2, [r3, #104]
	ldr	r3, .L492
	str	r2, [r3, #100]
	ldmib	sp, {fp, sp, pc}
.L493:
	.align	2
.L492:
	.word	GSU
	.word	GSU+56
	.size	_Z9fx_ldb_r3v, .-_Z9fx_ldb_r3v
	.align	2
	.type	_Z9fx_ldb_r4v, %function
_Z9fx_ldb_r4v:
	@ args = 0, pretend = 0, frame = 4
	@ frame_needed = 1, uses_anonymous_args = 0
	mov	ip, sp
	stmfd	sp!, {fp, ip, lr, pc}
	sub	fp, ip, #4
	sub	sp, sp, #4
	ldr	r3, .L498
	ldr	r2, [r3, #16]
	ldr	r3, .L498
	str	r2, [r3, #96]
	ldr	r3, .L498
	ldr	r2, [r3, #464]
	ldr	r3, .L498
	ldr	r3, [r3, #16]
	mov	r3, r3, asl #16
	mov	r3, r3, lsr #16
	add	r3, r2, r3
	ldrb	r3, [r3, #0]	@ zero_extendqisi2
	str	r3, [fp, #-16]
	ldr	r3, .L498
	ldr	r3, [r3, #60]
	add	r2, r3, #1
	ldr	r3, .L498
	str	r2, [r3, #60]
	ldr	r3, .L498
	ldr	r2, [r3, #100]
	ldr	r3, [fp, #-16]
	str	r3, [r2, #0]
	ldr	r3, .L498
	ldr	r2, [r3, #100]
	ldr	r3, .L498+4
	cmp	r2, r3
	bne	.L495
	ldr	r3, .L498
	ldr	r2, [r3, #468]
	ldr	r3, .L498
	ldr	r3, [r3, #56]
	mov	r3, r3, asl #16
	mov	r3, r3, lsr #16
	add	r3, r2, r3
	ldrb	r3, [r3, #0]	@ zero_extendqisi2
	ldr	r2, .L498
	strb	r3, [r2, #108]
.L495:
	ldr	r3, .L498
	ldr	r3, [r3, #72]
	bic	r2, r3, #4864
	ldr	r3, .L498
	str	r2, [r3, #72]
	ldr	r2, .L498
	ldr	r3, .L498
	str	r3, [r2, #104]
	ldr	r3, .L498
	ldr	r2, [r3, #104]
	ldr	r3, .L498
	str	r2, [r3, #100]
	ldmib	sp, {fp, sp, pc}
.L499:
	.align	2
.L498:
	.word	GSU
	.word	GSU+56
	.size	_Z9fx_ldb_r4v, .-_Z9fx_ldb_r4v
	.align	2
	.type	_Z9fx_ldb_r5v, %function
_Z9fx_ldb_r5v:
	@ args = 0, pretend = 0, frame = 4
	@ frame_needed = 1, uses_anonymous_args = 0
	mov	ip, sp
	stmfd	sp!, {fp, ip, lr, pc}
	sub	fp, ip, #4
	sub	sp, sp, #4
	ldr	r3, .L504
	ldr	r2, [r3, #20]
	ldr	r3, .L504
	str	r2, [r3, #96]
	ldr	r3, .L504
	ldr	r2, [r3, #464]
	ldr	r3, .L504
	ldr	r3, [r3, #20]
	mov	r3, r3, asl #16
	mov	r3, r3, lsr #16
	add	r3, r2, r3
	ldrb	r3, [r3, #0]	@ zero_extendqisi2
	str	r3, [fp, #-16]
	ldr	r3, .L504
	ldr	r3, [r3, #60]
	add	r2, r3, #1
	ldr	r3, .L504
	str	r2, [r3, #60]
	ldr	r3, .L504
	ldr	r2, [r3, #100]
	ldr	r3, [fp, #-16]
	str	r3, [r2, #0]
	ldr	r3, .L504
	ldr	r2, [r3, #100]
	ldr	r3, .L504+4
	cmp	r2, r3
	bne	.L501
	ldr	r3, .L504
	ldr	r2, [r3, #468]
	ldr	r3, .L504
	ldr	r3, [r3, #56]
	mov	r3, r3, asl #16
	mov	r3, r3, lsr #16
	add	r3, r2, r3
	ldrb	r3, [r3, #0]	@ zero_extendqisi2
	ldr	r2, .L504
	strb	r3, [r2, #108]
.L501:
	ldr	r3, .L504
	ldr	r3, [r3, #72]
	bic	r2, r3, #4864
	ldr	r3, .L504
	str	r2, [r3, #72]
	ldr	r2, .L504
	ldr	r3, .L504
	str	r3, [r2, #104]
	ldr	r3, .L504
	ldr	r2, [r3, #104]
	ldr	r3, .L504
	str	r2, [r3, #100]
	ldmib	sp, {fp, sp, pc}
.L505:
	.align	2
.L504:
	.word	GSU
	.word	GSU+56
	.size	_Z9fx_ldb_r5v, .-_Z9fx_ldb_r5v
	.align	2
	.type	_Z9fx_ldb_r6v, %function
_Z9fx_ldb_r6v:
	@ args = 0, pretend = 0, frame = 4
	@ frame_needed = 1, uses_anonymous_args = 0
	mov	ip, sp
	stmfd	sp!, {fp, ip, lr, pc}
	sub	fp, ip, #4
	sub	sp, sp, #4
	ldr	r3, .L510
	ldr	r2, [r3, #24]
	ldr	r3, .L510
	str	r2, [r3, #96]
	ldr	r3, .L510
	ldr	r2, [r3, #464]
	ldr	r3, .L510
	ldr	r3, [r3, #24]
	mov	r3, r3, asl #16
	mov	r3, r3, lsr #16
	add	r3, r2, r3
	ldrb	r3, [r3, #0]	@ zero_extendqisi2
	str	r3, [fp, #-16]
	ldr	r3, .L510
	ldr	r3, [r3, #60]
	add	r2, r3, #1
	ldr	r3, .L510
	str	r2, [r3, #60]
	ldr	r3, .L510
	ldr	r2, [r3, #100]
	ldr	r3, [fp, #-16]
	str	r3, [r2, #0]
	ldr	r3, .L510
	ldr	r2, [r3, #100]
	ldr	r3, .L510+4
	cmp	r2, r3
	bne	.L507
	ldr	r3, .L510
	ldr	r2, [r3, #468]
	ldr	r3, .L510
	ldr	r3, [r3, #56]
	mov	r3, r3, asl #16
	mov	r3, r3, lsr #16
	add	r3, r2, r3
	ldrb	r3, [r3, #0]	@ zero_extendqisi2
	ldr	r2, .L510
	strb	r3, [r2, #108]
.L507:
	ldr	r3, .L510
	ldr	r3, [r3, #72]
	bic	r2, r3, #4864
	ldr	r3, .L510
	str	r2, [r3, #72]
	ldr	r2, .L510
	ldr	r3, .L510
	str	r3, [r2, #104]
	ldr	r3, .L510
	ldr	r2, [r3, #104]
	ldr	r3, .L510
	str	r2, [r3, #100]
	ldmib	sp, {fp, sp, pc}
.L511:
	.align	2
.L510:
	.word	GSU
	.word	GSU+56
	.size	_Z9fx_ldb_r6v, .-_Z9fx_ldb_r6v
	.align	2
	.type	_Z9fx_ldb_r7v, %function
_Z9fx_ldb_r7v:
	@ args = 0, pretend = 0, frame = 4
	@ frame_needed = 1, uses_anonymous_args = 0
	mov	ip, sp
	stmfd	sp!, {fp, ip, lr, pc}
	sub	fp, ip, #4
	sub	sp, sp, #4
	ldr	r3, .L516
	ldr	r2, [r3, #28]
	ldr	r3, .L516
	str	r2, [r3, #96]
	ldr	r3, .L516
	ldr	r2, [r3, #464]
	ldr	r3, .L516
	ldr	r3, [r3, #28]
	mov	r3, r3, asl #16
	mov	r3, r3, lsr #16
	add	r3, r2, r3
	ldrb	r3, [r3, #0]	@ zero_extendqisi2
	str	r3, [fp, #-16]
	ldr	r3, .L516
	ldr	r3, [r3, #60]
	add	r2, r3, #1
	ldr	r3, .L516
	str	r2, [r3, #60]
	ldr	r3, .L516
	ldr	r2, [r3, #100]
	ldr	r3, [fp, #-16]
	str	r3, [r2, #0]
	ldr	r3, .L516
	ldr	r2, [r3, #100]
	ldr	r3, .L516+4
	cmp	r2, r3
	bne	.L513
	ldr	r3, .L516
	ldr	r2, [r3, #468]
	ldr	r3, .L516
	ldr	r3, [r3, #56]
	mov	r3, r3, asl #16
	mov	r3, r3, lsr #16
	add	r3, r2, r3
	ldrb	r3, [r3, #0]	@ zero_extendqisi2
	ldr	r2, .L516
	strb	r3, [r2, #108]
.L513:
	ldr	r3, .L516
	ldr	r3, [r3, #72]
	bic	r2, r3, #4864
	ldr	r3, .L516
	str	r2, [r3, #72]
	ldr	r2, .L516
	ldr	r3, .L516
	str	r3, [r2, #104]
	ldr	r3, .L516
	ldr	r2, [r3, #104]
	ldr	r3, .L516
	str	r2, [r3, #100]
	ldmib	sp, {fp, sp, pc}
.L517:
	.align	2
.L516:
	.word	GSU
	.word	GSU+56
	.size	_Z9fx_ldb_r7v, .-_Z9fx_ldb_r7v
	.align	2
	.type	_Z9fx_ldb_r8v, %function
_Z9fx_ldb_r8v:
	@ args = 0, pretend = 0, frame = 4
	@ frame_needed = 1, uses_anonymous_args = 0
	mov	ip, sp
	stmfd	sp!, {fp, ip, lr, pc}
	sub	fp, ip, #4
	sub	sp, sp, #4
	ldr	r3, .L522
	ldr	r2, [r3, #32]
	ldr	r3, .L522
	str	r2, [r3, #96]
	ldr	r3, .L522
	ldr	r2, [r3, #464]
	ldr	r3, .L522
	ldr	r3, [r3, #32]
	mov	r3, r3, asl #16
	mov	r3, r3, lsr #16
	add	r3, r2, r3
	ldrb	r3, [r3, #0]	@ zero_extendqisi2
	str	r3, [fp, #-16]
	ldr	r3, .L522
	ldr	r3, [r3, #60]
	add	r2, r3, #1
	ldr	r3, .L522
	str	r2, [r3, #60]
	ldr	r3, .L522
	ldr	r2, [r3, #100]
	ldr	r3, [fp, #-16]
	str	r3, [r2, #0]
	ldr	r3, .L522
	ldr	r2, [r3, #100]
	ldr	r3, .L522+4
	cmp	r2, r3
	bne	.L519
	ldr	r3, .L522
	ldr	r2, [r3, #468]
	ldr	r3, .L522
	ldr	r3, [r3, #56]
	mov	r3, r3, asl #16
	mov	r3, r3, lsr #16
	add	r3, r2, r3
	ldrb	r3, [r3, #0]	@ zero_extendqisi2
	ldr	r2, .L522
	strb	r3, [r2, #108]
.L519:
	ldr	r3, .L522
	ldr	r3, [r3, #72]
	bic	r2, r3, #4864
	ldr	r3, .L522
	str	r2, [r3, #72]
	ldr	r2, .L522
	ldr	r3, .L522
	str	r3, [r2, #104]
	ldr	r3, .L522
	ldr	r2, [r3, #104]
	ldr	r3, .L522
	str	r2, [r3, #100]
	ldmib	sp, {fp, sp, pc}
.L523:
	.align	2
.L522:
	.word	GSU
	.word	GSU+56
	.size	_Z9fx_ldb_r8v, .-_Z9fx_ldb_r8v
	.align	2
	.type	_Z9fx_ldb_r9v, %function
_Z9fx_ldb_r9v:
	@ args = 0, pretend = 0, frame = 4
	@ frame_needed = 1, uses_anonymous_args = 0
	mov	ip, sp
	stmfd	sp!, {fp, ip, lr, pc}
	sub	fp, ip, #4
	sub	sp, sp, #4
	ldr	r3, .L528
	ldr	r2, [r3, #36]
	ldr	r3, .L528
	str	r2, [r3, #96]
	ldr	r3, .L528
	ldr	r2, [r3, #464]
	ldr	r3, .L528
	ldr	r3, [r3, #36]
	mov	r3, r3, asl #16
	mov	r3, r3, lsr #16
	add	r3, r2, r3
	ldrb	r3, [r3, #0]	@ zero_extendqisi2
	str	r3, [fp, #-16]
	ldr	r3, .L528
	ldr	r3, [r3, #60]
	add	r2, r3, #1
	ldr	r3, .L528
	str	r2, [r3, #60]
	ldr	r3, .L528
	ldr	r2, [r3, #100]
	ldr	r3, [fp, #-16]
	str	r3, [r2, #0]
	ldr	r3, .L528
	ldr	r2, [r3, #100]
	ldr	r3, .L528+4
	cmp	r2, r3
	bne	.L525
	ldr	r3, .L528
	ldr	r2, [r3, #468]
	ldr	r3, .L528
	ldr	r3, [r3, #56]
	mov	r3, r3, asl #16
	mov	r3, r3, lsr #16
	add	r3, r2, r3
	ldrb	r3, [r3, #0]	@ zero_extendqisi2
	ldr	r2, .L528
	strb	r3, [r2, #108]
.L525:
	ldr	r3, .L528
	ldr	r3, [r3, #72]
	bic	r2, r3, #4864
	ldr	r3, .L528
	str	r2, [r3, #72]
	ldr	r2, .L528
	ldr	r3, .L528
	str	r3, [r2, #104]
	ldr	r3, .L528
	ldr	r2, [r3, #104]
	ldr	r3, .L528
	str	r2, [r3, #100]
	ldmib	sp, {fp, sp, pc}
.L529:
	.align	2
.L528:
	.word	GSU
	.word	GSU+56
	.size	_Z9fx_ldb_r9v, .-_Z9fx_ldb_r9v
	.align	2
	.type	_Z10fx_ldb_r10v, %function
_Z10fx_ldb_r10v:
	@ args = 0, pretend = 0, frame = 4
	@ frame_needed = 1, uses_anonymous_args = 0
	mov	ip, sp
	stmfd	sp!, {fp, ip, lr, pc}
	sub	fp, ip, #4
	sub	sp, sp, #4
	ldr	r3, .L534
	ldr	r2, [r3, #40]
	ldr	r3, .L534
	str	r2, [r3, #96]
	ldr	r3, .L534
	ldr	r2, [r3, #464]
	ldr	r3, .L534
	ldr	r3, [r3, #40]
	mov	r3, r3, asl #16
	mov	r3, r3, lsr #16
	add	r3, r2, r3
	ldrb	r3, [r3, #0]	@ zero_extendqisi2
	str	r3, [fp, #-16]
	ldr	r3, .L534
	ldr	r3, [r3, #60]
	add	r2, r3, #1
	ldr	r3, .L534
	str	r2, [r3, #60]
	ldr	r3, .L534
	ldr	r2, [r3, #100]
	ldr	r3, [fp, #-16]
	str	r3, [r2, #0]
	ldr	r3, .L534
	ldr	r2, [r3, #100]
	ldr	r3, .L534+4
	cmp	r2, r3
	bne	.L531
	ldr	r3, .L534
	ldr	r2, [r3, #468]
	ldr	r3, .L534
	ldr	r3, [r3, #56]
	mov	r3, r3, asl #16
	mov	r3, r3, lsr #16
	add	r3, r2, r3
	ldrb	r3, [r3, #0]	@ zero_extendqisi2
	ldr	r2, .L534
	strb	r3, [r2, #108]
.L531:
	ldr	r3, .L534
	ldr	r3, [r3, #72]
	bic	r2, r3, #4864
	ldr	r3, .L534
	str	r2, [r3, #72]
	ldr	r2, .L534
	ldr	r3, .L534
	str	r3, [r2, #104]
	ldr	r3, .L534
	ldr	r2, [r3, #104]
	ldr	r3, .L534
	str	r2, [r3, #100]
	ldmib	sp, {fp, sp, pc}
.L535:
	.align	2
.L534:
	.word	GSU
	.word	GSU+56
	.size	_Z10fx_ldb_r10v, .-_Z10fx_ldb_r10v
	.align	2
	.type	_Z10fx_ldb_r11v, %function
_Z10fx_ldb_r11v:
	@ args = 0, pretend = 0, frame = 4
	@ frame_needed = 1, uses_anonymous_args = 0
	mov	ip, sp
	stmfd	sp!, {fp, ip, lr, pc}
	sub	fp, ip, #4
	sub	sp, sp, #4
	ldr	r3, .L540
	ldr	r2, [r3, #44]
	ldr	r3, .L540
	str	r2, [r3, #96]
	ldr	r3, .L540
	ldr	r2, [r3, #464]
	ldr	r3, .L540
	ldr	r3, [r3, #44]
	mov	r3, r3, asl #16
	mov	r3, r3, lsr #16
	add	r3, r2, r3
	ldrb	r3, [r3, #0]	@ zero_extendqisi2
	str	r3, [fp, #-16]
	ldr	r3, .L540
	ldr	r3, [r3, #60]
	add	r2, r3, #1
	ldr	r3, .L540
	str	r2, [r3, #60]
	ldr	r3, .L540
	ldr	r2, [r3, #100]
	ldr	r3, [fp, #-16]
	str	r3, [r2, #0]
	ldr	r3, .L540
	ldr	r2, [r3, #100]
	ldr	r3, .L540+4
	cmp	r2, r3
	bne	.L537
	ldr	r3, .L540
	ldr	r2, [r3, #468]
	ldr	r3, .L540
	ldr	r3, [r3, #56]
	mov	r3, r3, asl #16
	mov	r3, r3, lsr #16
	add	r3, r2, r3
	ldrb	r3, [r3, #0]	@ zero_extendqisi2
	ldr	r2, .L540
	strb	r3, [r2, #108]
.L537:
	ldr	r3, .L540
	ldr	r3, [r3, #72]
	bic	r2, r3, #4864
	ldr	r3, .L540
	str	r2, [r3, #72]
	ldr	r2, .L540
	ldr	r3, .L540
	str	r3, [r2, #104]
	ldr	r3, .L540
	ldr	r2, [r3, #104]
	ldr	r3, .L540
	str	r2, [r3, #100]
	ldmib	sp, {fp, sp, pc}
.L541:
	.align	2
.L540:
	.word	GSU
	.word	GSU+56
	.size	_Z10fx_ldb_r11v, .-_Z10fx_ldb_r11v
	.align	2
	.type	_Z12fx_plot_2bitv, %function
_Z12fx_plot_2bitv:
	@ args = 0, pretend = 0, frame = 20
	@ frame_needed = 1, uses_anonymous_args = 0
	mov	ip, sp
	stmfd	sp!, {fp, ip, lr, pc}
	sub	fp, ip, #4
	sub	sp, sp, #20
	ldr	r3, .L559
	ldr	r3, [r3, #4]
	and	r3, r3, #255
	str	r3, [fp, #-28]
	ldr	r3, .L559
	ldr	r3, [r3, #8]
	and	r3, r3, #255
	str	r3, [fp, #-24]
	ldr	r3, .L559
	ldr	r3, [r3, #60]
	add	r2, r3, #1
	ldr	r3, .L559
	str	r2, [r3, #60]
	ldr	r3, .L559
	ldr	r3, [r3, #72]
	bic	r2, r3, #4864
	ldr	r3, .L559
	str	r2, [r3, #72]
	ldr	r2, .L559
	ldr	r3, .L559
	str	r3, [r2, #104]
	ldr	r3, .L559
	ldr	r2, [r3, #104]
	ldr	r3, .L559
	str	r2, [r3, #100]
	ldr	r3, .L559
	ldr	r3, [r3, #4]
	add	r2, r3, #1
	ldr	r3, .L559
	str	r2, [r3, #4]
	ldr	r3, .L559
	ldr	r2, [r3, #440]
	ldr	r3, [fp, #-24]
	cmp	r2, r3
	bls	.L558
	ldr	r3, .L559
	ldr	r3, [r3, #68]
	and	r3, r3, #2
	cmp	r3, #0
	beq	.L545
	ldr	r2, [fp, #-28]
	ldr	r3, [fp, #-24]
	eor	r3, r2, r3
	and	r3, r3, #1
	and	r3, r3, #255
	cmp	r3, #0
	beq	.L547
	ldr	r3, .L559
	ldr	r3, [r3, #64]
	mov	r3, r3, lsr #4
	and	r3, r3, #255
	str	r3, [fp, #-32]
	b	.L549
.L547:
	ldr	r3, .L559
	ldr	r3, [r3, #64]
	and	r3, r3, #255
	str	r3, [fp, #-32]
.L549:
	ldr	r2, [fp, #-32]
	mov	r3, r2
	strb	r3, [fp, #-13]
	b	.L550
.L545:
	ldr	r3, .L559
	ldr	r3, [r3, #64]
	strb	r3, [fp, #-13]
.L550:
	ldr	r3, .L559
	ldr	r3, [r3, #68]
	and	r3, r3, #1
	and	r3, r3, #255
	eor	r3, r3, #1
	and	r3, r3, #255
	cmp	r3, #0
	beq	.L551
	ldrb	r3, [fp, #-13]	@ zero_extendqisi2
	and	r3, r3, #15
	cmp	r3, #0
	beq	.L558
.L551:
	ldr	r3, [fp, #-24]
	mov	r3, r3, lsr #3
	ldr	r2, .L559
	mov	r1, #184
	mov	r3, r3, asl #2
	add	r3, r3, r2
	add	r3, r3, r1
	ldr	r0, [r3, #0]
	ldr	r3, [fp, #-28]
	mov	r3, r3, lsr #3
	ldr	r2, .L559
	mov	r1, #312
	mov	r3, r3, asl #2
	add	r3, r3, r2
	add	r3, r3, r1
	ldr	r3, [r3, #0]
	add	r2, r0, r3
	ldr	r3, [fp, #-24]
	and	r3, r3, #7
	mov	r3, r3, asl #1
	add	r3, r2, r3
	str	r3, [fp, #-20]
	ldr	r3, [fp, #-28]
	and	r2, r3, #7
	mov	r3, #128
	mov	r3, r3, asr r2
	strb	r3, [fp, #-14]
	ldrb	r3, [fp, #-13]	@ zero_extendqisi2
	and	r3, r3, #1
	and	r3, r3, #255
	cmp	r3, #0
	beq	.L553
	ldr	r3, [fp, #-20]
	ldrb	r2, [r3, #0]	@ zero_extendqisi2
	ldrb	r3, [fp, #-14]
	orr	r3, r2, r3
	and	r3, r3, #255
	ldr	r2, [fp, #-20]
	strb	r3, [r2, #0]
	b	.L555
.L553:
	ldr	r3, [fp, #-20]
	ldrb	r3, [r3, #0]	@ zero_extendqisi2
	mov	r2, r3
	ldrb	r3, [fp, #-14]	@ zero_extendqisi2
	mvn	r3, r3
	and	r3, r3, #255
	and	r3, r2, r3
	and	r3, r3, #255
	and	r3, r3, #255
	ldr	r2, [fp, #-20]
	strb	r3, [r2, #0]
.L555:
	ldrb	r3, [fp, #-13]	@ zero_extendqisi2
	and	r3, r3, #2
	cmp	r3, #0
	beq	.L556
	ldr	r3, [fp, #-20]
	add	r1, r3, #1
	ldr	r3, [fp, #-20]
	add	r3, r3, #1
	ldrb	r2, [r3, #0]	@ zero_extendqisi2
	ldrb	r3, [fp, #-14]
	orr	r3, r2, r3
	and	r3, r3, #255
	strb	r3, [r1, #0]
	b	.L558
.L556:
	ldr	r3, [fp, #-20]
	add	r1, r3, #1
	ldr	r3, [fp, #-20]
	add	r3, r3, #1
	ldrb	r3, [r3, #0]	@ zero_extendqisi2
	mov	r2, r3
	ldrb	r3, [fp, #-14]	@ zero_extendqisi2
	mvn	r3, r3
	and	r3, r3, #255
	and	r3, r2, r3
	and	r3, r3, #255
	and	r3, r3, #255
	strb	r3, [r1, #0]
.L558:
	sub	sp, fp, #12
	ldmfd	sp, {fp, sp, pc}
.L560:
	.align	2
.L559:
	.word	GSU
	.size	_Z12fx_plot_2bitv, .-_Z12fx_plot_2bitv
	.align	2
	.type	_Z12fx_rpix_2bitv, %function
_Z12fx_rpix_2bitv:
	@ args = 0, pretend = 0, frame = 28
	@ frame_needed = 1, uses_anonymous_args = 0
	mov	ip, sp
	stmfd	sp!, {fp, ip, lr, pc}
	sub	fp, ip, #4
	sub	sp, sp, #28
	ldr	r3, .L569
	ldr	r3, [r3, #4]
	and	r3, r3, #255
	str	r3, [fp, #-28]
	ldr	r3, .L569
	ldr	r3, [r3, #8]
	and	r3, r3, #255
	str	r3, [fp, #-24]
	ldr	r3, .L569
	ldr	r3, [r3, #60]
	add	r2, r3, #1
	ldr	r3, .L569
	str	r2, [r3, #60]
	ldr	r3, .L569
	ldr	r3, [r3, #72]
	bic	r2, r3, #4864
	ldr	r3, .L569
	str	r2, [r3, #72]
	ldr	r2, .L569
	ldr	r3, .L569
	str	r3, [r2, #104]
	ldr	r3, .L569
	ldr	r2, [r3, #104]
	ldr	r3, .L569
	str	r2, [r3, #100]
	ldr	r3, .L569
	ldr	r2, [r3, #440]
	ldr	r3, [fp, #-24]
	cmp	r2, r3
	bls	.L568
	ldr	r3, [fp, #-24]
	mov	r3, r3, lsr #3
	ldr	r2, .L569
	mov	r1, #184
	mov	r3, r3, asl #2
	add	r3, r3, r2
	add	r3, r3, r1
	ldr	r0, [r3, #0]
	ldr	r3, [fp, #-28]
	mov	r3, r3, lsr #3
	ldr	r2, .L569
	mov	r1, #312
	mov	r3, r3, asl #2
	add	r3, r3, r2
	add	r3, r3, r1
	ldr	r3, [r3, #0]
	add	r2, r0, r3
	ldr	r3, [fp, #-24]
	and	r3, r3, #7
	mov	r3, r3, asl #1
	add	r3, r2, r3
	str	r3, [fp, #-20]
	ldr	r3, [fp, #-28]
	and	r2, r3, #7
	mov	r3, #128
	mov	r3, r3, asr r2
	strb	r3, [fp, #-13]
	ldr	r3, .L569
	ldr	r2, [r3, #100]
	mov	r3, #0
	str	r3, [r2, #0]
	ldr	r3, .L569
	ldr	r0, [r3, #100]
	ldr	r3, .L569
	ldr	r3, [r3, #100]
	ldr	r1, [r3, #0]
	ldr	r3, [fp, #-20]
	ldrb	r3, [r3, #0]	@ zero_extendqisi2
	mov	r2, r3
	ldrb	r3, [fp, #-13]	@ zero_extendqisi2
	and	r3, r2, r3
	cmp	r3, #0
	moveq	r3, #0
	movne	r3, #1
	orr	r3, r1, r3
	str	r3, [r0, #0]
	ldr	r3, .L569
	ldr	r3, [r3, #100]
	str	r3, [fp, #-40]
	ldr	r3, .L569
	ldr	r3, [r3, #100]
	ldr	r3, [r3, #0]
	str	r3, [fp, #-36]
	ldr	r3, [fp, #-20]
	add	r3, r3, #1
	ldrb	r3, [r3, #0]	@ zero_extendqisi2
	mov	r2, r3
	ldrb	r3, [fp, #-13]	@ zero_extendqisi2
	and	r3, r2, r3
	cmp	r3, #0
	beq	.L564
	mov	r1, #2
	str	r1, [fp, #-32]
	b	.L566
.L564:
	mov	r2, #0
	str	r2, [fp, #-32]
.L566:
	ldr	r1, [fp, #-36]
	ldr	r2, [fp, #-32]
	orr	r3, r1, r2
	ldr	r1, [fp, #-40]
	str	r3, [r1, #0]
	ldr	r3, .L569
	ldr	r2, [r3, #100]
	ldr	r3, .L569+4
	cmp	r2, r3
	bne	.L568
	ldr	r3, .L569
	ldr	r2, [r3, #468]
	ldr	r3, .L569
	ldr	r3, [r3, #56]
	mov	r3, r3, asl #16
	mov	r3, r3, lsr #16
	add	r3, r2, r3
	ldrb	r3, [r3, #0]	@ zero_extendqisi2
	ldr	r2, .L569
	strb	r3, [r2, #108]
.L568:
	sub	sp, fp, #12
	ldmfd	sp, {fp, sp, pc}
.L570:
	.align	2
.L569:
	.word	GSU
	.word	GSU+56
	.size	_Z12fx_rpix_2bitv, .-_Z12fx_rpix_2bitv
	.align	2
	.type	_Z12fx_plot_4bitv, %function
_Z12fx_plot_4bitv:
	@ args = 0, pretend = 0, frame = 20
	@ frame_needed = 1, uses_anonymous_args = 0
	mov	ip, sp
	stmfd	sp!, {fp, ip, lr, pc}
	sub	fp, ip, #4
	sub	sp, sp, #20
	ldr	r3, .L594
	ldr	r3, [r3, #4]
	and	r3, r3, #255
	str	r3, [fp, #-28]
	ldr	r3, .L594
	ldr	r3, [r3, #8]
	and	r3, r3, #255
	str	r3, [fp, #-24]
	ldr	r3, .L594
	ldr	r3, [r3, #60]
	add	r2, r3, #1
	ldr	r3, .L594
	str	r2, [r3, #60]
	ldr	r3, .L594
	ldr	r3, [r3, #72]
	bic	r2, r3, #4864
	ldr	r3, .L594
	str	r2, [r3, #72]
	ldr	r2, .L594
	ldr	r3, .L594
	str	r3, [r2, #104]
	ldr	r3, .L594
	ldr	r2, [r3, #104]
	ldr	r3, .L594
	str	r2, [r3, #100]
	ldr	r3, .L594
	ldr	r3, [r3, #4]
	add	r2, r3, #1
	ldr	r3, .L594
	str	r2, [r3, #4]
	ldr	r3, .L594
	ldr	r2, [r3, #440]
	ldr	r3, [fp, #-24]
	cmp	r2, r3
	bls	.L593
	ldr	r3, .L594
	ldr	r3, [r3, #68]
	and	r3, r3, #2
	cmp	r3, #0
	beq	.L574
	ldr	r2, [fp, #-28]
	ldr	r3, [fp, #-24]
	eor	r3, r2, r3
	and	r3, r3, #1
	and	r3, r3, #255
	cmp	r3, #0
	beq	.L576
	ldr	r3, .L594
	ldr	r3, [r3, #64]
	mov	r3, r3, lsr #4
	and	r3, r3, #255
	str	r3, [fp, #-32]
	b	.L578
.L576:
	ldr	r3, .L594
	ldr	r3, [r3, #64]
	and	r3, r3, #255
	str	r3, [fp, #-32]
.L578:
	ldr	r2, [fp, #-32]
	mov	r3, r2
	strb	r3, [fp, #-13]
	b	.L579
.L574:
	ldr	r3, .L594
	ldr	r3, [r3, #64]
	strb	r3, [fp, #-13]
.L579:
	ldr	r3, .L594
	ldr	r3, [r3, #68]
	and	r3, r3, #1
	and	r3, r3, #255
	eor	r3, r3, #1
	and	r3, r3, #255
	cmp	r3, #0
	beq	.L580
	ldrb	r3, [fp, #-13]	@ zero_extendqisi2
	and	r3, r3, #15
	cmp	r3, #0
	beq	.L593
.L580:
	ldr	r3, [fp, #-24]
	mov	r3, r3, lsr #3
	ldr	r2, .L594
	mov	r1, #184
	mov	r3, r3, asl #2
	add	r3, r3, r2
	add	r3, r3, r1
	ldr	r0, [r3, #0]
	ldr	r3, [fp, #-28]
	mov	r3, r3, lsr #3
	ldr	r2, .L594
	mov	r1, #312
	mov	r3, r3, asl #2
	add	r3, r3, r2
	add	r3, r3, r1
	ldr	r3, [r3, #0]
	add	r2, r0, r3
	ldr	r3, [fp, #-24]
	and	r3, r3, #7
	mov	r3, r3, asl #1
	add	r3, r2, r3
	str	r3, [fp, #-20]
	ldr	r3, [fp, #-28]
	and	r2, r3, #7
	mov	r3, #128
	mov	r3, r3, asr r2
	strb	r3, [fp, #-14]
	ldrb	r3, [fp, #-13]	@ zero_extendqisi2
	and	r3, r3, #1
	and	r3, r3, #255
	cmp	r3, #0
	beq	.L582
	ldr	r3, [fp, #-20]
	ldrb	r2, [r3, #0]	@ zero_extendqisi2
	ldrb	r3, [fp, #-14]
	orr	r3, r2, r3
	and	r3, r3, #255
	ldr	r2, [fp, #-20]
	strb	r3, [r2, #0]
	b	.L584
.L582:
	ldr	r3, [fp, #-20]
	ldrb	r3, [r3, #0]	@ zero_extendqisi2
	mov	r2, r3
	ldrb	r3, [fp, #-14]	@ zero_extendqisi2
	mvn	r3, r3
	and	r3, r3, #255
	and	r3, r2, r3
	and	r3, r3, #255
	and	r3, r3, #255
	ldr	r2, [fp, #-20]
	strb	r3, [r2, #0]
.L584:
	ldrb	r3, [fp, #-13]	@ zero_extendqisi2
	and	r3, r3, #2
	cmp	r3, #0
	beq	.L585
	ldr	r3, [fp, #-20]
	add	r1, r3, #1
	ldr	r3, [fp, #-20]
	add	r3, r3, #1
	ldrb	r2, [r3, #0]	@ zero_extendqisi2
	ldrb	r3, [fp, #-14]
	orr	r3, r2, r3
	and	r3, r3, #255
	strb	r3, [r1, #0]
	b	.L587
.L585:
	ldr	r3, [fp, #-20]
	add	r1, r3, #1
	ldr	r3, [fp, #-20]
	add	r3, r3, #1
	ldrb	r3, [r3, #0]	@ zero_extendqisi2
	mov	r2, r3
	ldrb	r3, [fp, #-14]	@ zero_extendqisi2
	mvn	r3, r3
	and	r3, r3, #255
	and	r3, r2, r3
	and	r3, r3, #255
	and	r3, r3, #255
	strb	r3, [r1, #0]
.L587:
	ldrb	r3, [fp, #-13]	@ zero_extendqisi2
	and	r3, r3, #4
	cmp	r3, #0
	beq	.L588
	ldr	r3, [fp, #-20]
	add	r1, r3, #16
	ldr	r3, [fp, #-20]
	add	r3, r3, #16
	ldrb	r2, [r3, #0]	@ zero_extendqisi2
	ldrb	r3, [fp, #-14]
	orr	r3, r2, r3
	and	r3, r3, #255
	strb	r3, [r1, #0]
	b	.L590
.L588:
	ldr	r3, [fp, #-20]
	add	r1, r3, #16
	ldr	r3, [fp, #-20]
	add	r3, r3, #16
	ldrb	r3, [r3, #0]	@ zero_extendqisi2
	mov	r2, r3
	ldrb	r3, [fp, #-14]	@ zero_extendqisi2
	mvn	r3, r3
	and	r3, r3, #255
	and	r3, r2, r3
	and	r3, r3, #255
	and	r3, r3, #255
	strb	r3, [r1, #0]
.L590:
	ldrb	r3, [fp, #-13]	@ zero_extendqisi2
	and	r3, r3, #8
	cmp	r3, #0
	beq	.L591
	ldr	r3, [fp, #-20]
	add	r1, r3, #17
	ldr	r3, [fp, #-20]
	add	r3, r3, #17
	ldrb	r2, [r3, #0]	@ zero_extendqisi2
	ldrb	r3, [fp, #-14]
	orr	r3, r2, r3
	and	r3, r3, #255
	strb	r3, [r1, #0]
	b	.L593
.L591:
	ldr	r3, [fp, #-20]
	add	r1, r3, #17
	ldr	r3, [fp, #-20]
	add	r3, r3, #17
	ldrb	r3, [r3, #0]	@ zero_extendqisi2
	mov	r2, r3
	ldrb	r3, [fp, #-14]	@ zero_extendqisi2
	mvn	r3, r3
	and	r3, r3, #255
	and	r3, r2, r3
	and	r3, r3, #255
	and	r3, r3, #255
	strb	r3, [r1, #0]
.L593:
	sub	sp, fp, #12
	ldmfd	sp, {fp, sp, pc}
.L595:
	.align	2
.L594:
	.word	GSU
	.size	_Z12fx_plot_4bitv, .-_Z12fx_plot_4bitv
	.align	2
	.type	_Z12fx_rpix_4bitv, %function
_Z12fx_rpix_4bitv:
	@ args = 0, pretend = 0, frame = 52
	@ frame_needed = 1, uses_anonymous_args = 0
	mov	ip, sp
	stmfd	sp!, {fp, ip, lr, pc}
	sub	fp, ip, #4
	sub	sp, sp, #52
	ldr	r3, .L610
	ldr	r3, [r3, #4]
	and	r3, r3, #255
	str	r3, [fp, #-28]
	ldr	r3, .L610
	ldr	r3, [r3, #8]
	and	r3, r3, #255
	str	r3, [fp, #-24]
	ldr	r3, .L610
	ldr	r3, [r3, #60]
	add	r2, r3, #1
	ldr	r3, .L610
	str	r2, [r3, #60]
	ldr	r3, .L610
	ldr	r3, [r3, #72]
	bic	r2, r3, #4864
	ldr	r3, .L610
	str	r2, [r3, #72]
	ldr	r2, .L610
	ldr	r3, .L610
	str	r3, [r2, #104]
	ldr	r3, .L610
	ldr	r2, [r3, #104]
	ldr	r3, .L610
	str	r2, [r3, #100]
	ldr	r3, .L610
	ldr	r2, [r3, #440]
	ldr	r3, [fp, #-24]
	cmp	r2, r3
	bls	.L609
	ldr	r3, [fp, #-24]
	mov	r3, r3, lsr #3
	ldr	r2, .L610
	mov	r1, #184
	mov	r3, r3, asl #2
	add	r3, r3, r2
	add	r3, r3, r1
	ldr	r0, [r3, #0]
	ldr	r3, [fp, #-28]
	mov	r3, r3, lsr #3
	ldr	r2, .L610
	mov	r1, #312
	mov	r3, r3, asl #2
	add	r3, r3, r2
	add	r3, r3, r1
	ldr	r3, [r3, #0]
	add	r2, r0, r3
	ldr	r3, [fp, #-24]
	and	r3, r3, #7
	mov	r3, r3, asl #1
	add	r3, r2, r3
	str	r3, [fp, #-20]
	ldr	r3, [fp, #-28]
	and	r2, r3, #7
	mov	r3, #128
	mov	r3, r3, asr r2
	strb	r3, [fp, #-13]
	ldr	r3, .L610
	ldr	r2, [r3, #100]
	mov	r3, #0
	str	r3, [r2, #0]
	ldr	r3, .L610
	ldr	r0, [r3, #100]
	ldr	r3, .L610
	ldr	r3, [r3, #100]
	ldr	r1, [r3, #0]
	ldr	r3, [fp, #-20]
	ldrb	r3, [r3, #0]	@ zero_extendqisi2
	mov	r2, r3
	ldrb	r3, [fp, #-13]	@ zero_extendqisi2
	and	r3, r2, r3
	cmp	r3, #0
	moveq	r3, #0
	movne	r3, #1
	orr	r3, r1, r3
	str	r3, [r0, #0]
	ldr	r3, .L610
	ldr	r3, [r3, #100]
	str	r3, [fp, #-64]
	ldr	r3, .L610
	ldr	r3, [r3, #100]
	ldr	r3, [r3, #0]
	str	r3, [fp, #-60]
	ldr	r3, [fp, #-20]
	add	r3, r3, #1
	ldrb	r3, [r3, #0]	@ zero_extendqisi2
	mov	r2, r3
	ldrb	r3, [fp, #-13]	@ zero_extendqisi2
	and	r3, r2, r3
	cmp	r3, #0
	beq	.L599
	mov	r1, #2
	str	r1, [fp, #-56]
	b	.L601
.L599:
	mov	r2, #0
	str	r2, [fp, #-56]
.L601:
	ldr	r1, [fp, #-60]
	ldr	r2, [fp, #-56]
	orr	r3, r1, r2
	ldr	r1, [fp, #-64]
	str	r3, [r1, #0]
	ldr	r3, .L610
	ldr	r3, [r3, #100]
	str	r3, [fp, #-52]
	ldr	r3, .L610
	ldr	r3, [r3, #100]
	ldr	r3, [r3, #0]
	str	r3, [fp, #-48]
	ldr	r3, [fp, #-20]
	add	r3, r3, #16
	ldrb	r3, [r3, #0]	@ zero_extendqisi2
	mov	r2, r3
	ldrb	r3, [fp, #-13]	@ zero_extendqisi2
	and	r3, r2, r3
	cmp	r3, #0
	beq	.L602
	mov	r2, #4
	str	r2, [fp, #-44]
	b	.L604
.L602:
	mov	r3, #0
	str	r3, [fp, #-44]
.L604:
	ldr	r1, [fp, #-48]
	ldr	r2, [fp, #-44]
	orr	r3, r1, r2
	ldr	r1, [fp, #-52]
	str	r3, [r1, #0]
	ldr	r3, .L610
	ldr	r3, [r3, #100]
	str	r3, [fp, #-40]
	ldr	r3, .L610
	ldr	r3, [r3, #100]
	ldr	r3, [r3, #0]
	str	r3, [fp, #-36]
	ldr	r3, [fp, #-20]
	add	r3, r3, #17
	ldrb	r3, [r3, #0]	@ zero_extendqisi2
	mov	r2, r3
	ldrb	r3, [fp, #-13]	@ zero_extendqisi2
	and	r3, r2, r3
	cmp	r3, #0
	beq	.L605
	mov	r2, #8
	str	r2, [fp, #-32]
	b	.L607
.L605:
	mov	r3, #0
	str	r3, [fp, #-32]
.L607:
	ldr	r1, [fp, #-36]
	ldr	r2, [fp, #-32]
	orr	r3, r1, r2
	ldr	r1, [fp, #-40]
	str	r3, [r1, #0]
	ldr	r3, .L610
	ldr	r2, [r3, #100]
	ldr	r3, .L610+4
	cmp	r2, r3
	bne	.L609
	ldr	r3, .L610
	ldr	r2, [r3, #468]
	ldr	r3, .L610
	ldr	r3, [r3, #56]
	mov	r3, r3, asl #16
	mov	r3, r3, lsr #16
	add	r3, r2, r3
	ldrb	r3, [r3, #0]	@ zero_extendqisi2
	ldr	r2, .L610
	strb	r3, [r2, #108]
.L609:
	sub	sp, fp, #12
	ldmfd	sp, {fp, sp, pc}
.L611:
	.align	2
.L610:
	.word	GSU
	.word	GSU+56
	.size	_Z12fx_rpix_4bitv, .-_Z12fx_rpix_4bitv
	.align	2
	.type	_Z12fx_plot_8bitv, %function
_Z12fx_plot_8bitv:
	@ args = 0, pretend = 0, frame = 16
	@ frame_needed = 1, uses_anonymous_args = 0
	mov	ip, sp
	stmfd	sp!, {fp, ip, lr, pc}
	sub	fp, ip, #4
	sub	sp, sp, #16
	ldr	r3, .L645
	ldr	r3, [r3, #4]
	and	r3, r3, #255
	str	r3, [fp, #-28]
	ldr	r3, .L645
	ldr	r3, [r3, #8]
	and	r3, r3, #255
	str	r3, [fp, #-24]
	ldr	r3, .L645
	ldr	r3, [r3, #60]
	add	r2, r3, #1
	ldr	r3, .L645
	str	r2, [r3, #60]
	ldr	r3, .L645
	ldr	r3, [r3, #72]
	bic	r2, r3, #4864
	ldr	r3, .L645
	str	r2, [r3, #72]
	ldr	r2, .L645
	ldr	r3, .L645
	str	r3, [r2, #104]
	ldr	r3, .L645
	ldr	r2, [r3, #104]
	ldr	r3, .L645
	str	r2, [r3, #100]
	ldr	r3, .L645
	ldr	r3, [r3, #4]
	add	r2, r3, #1
	ldr	r3, .L645
	str	r2, [r3, #4]
	ldr	r3, .L645
	ldr	r2, [r3, #440]
	ldr	r3, [fp, #-24]
	cmp	r2, r3
	bls	.L644
	ldr	r3, .L645
	ldr	r3, [r3, #64]
	strb	r3, [fp, #-13]
	ldr	r3, .L645
	ldr	r3, [r3, #68]
	and	r3, r3, #16
	cmp	r3, #0
	bne	.L615
	ldr	r3, .L645
	ldr	r3, [r3, #68]
	and	r3, r3, #1
	and	r3, r3, #255
	eor	r3, r3, #1
	and	r3, r3, #255
	cmp	r3, #0
	beq	.L619
	ldrb	r3, [fp, #-13]	@ zero_extendqisi2
	and	r3, r3, #15
	cmp	r3, #0
	beq	.L644
	b	.L619
.L615:
	ldr	r3, .L645
	ldr	r3, [r3, #68]
	and	r3, r3, #1
	and	r3, r3, #255
	eor	r3, r3, #1
	and	r3, r3, #255
	cmp	r3, #0
	beq	.L619
	ldrb	r3, [fp, #-13]	@ zero_extendqisi2
	cmp	r3, #0
	beq	.L644
.L619:
	ldr	r3, [fp, #-24]
	mov	r3, r3, lsr #3
	ldr	r2, .L645
	mov	r1, #184
	mov	r3, r3, asl #2
	add	r3, r3, r2
	add	r3, r3, r1
	ldr	r0, [r3, #0]
	ldr	r3, [fp, #-28]
	mov	r3, r3, lsr #3
	ldr	r2, .L645
	mov	r1, #312
	mov	r3, r3, asl #2
	add	r3, r3, r2
	add	r3, r3, r1
	ldr	r3, [r3, #0]
	add	r2, r0, r3
	ldr	r3, [fp, #-24]
	and	r3, r3, #7
	mov	r3, r3, asl #1
	add	r3, r2, r3
	str	r3, [fp, #-20]
	ldr	r3, [fp, #-28]
	and	r2, r3, #7
	mov	r3, #128
	mov	r3, r3, asr r2
	strb	r3, [fp, #-14]
	ldrb	r3, [fp, #-13]	@ zero_extendqisi2
	and	r3, r3, #1
	and	r3, r3, #255
	cmp	r3, #0
	beq	.L621
	ldr	r3, [fp, #-20]
	ldrb	r2, [r3, #0]	@ zero_extendqisi2
	ldrb	r3, [fp, #-14]
	orr	r3, r2, r3
	and	r3, r3, #255
	ldr	r2, [fp, #-20]
	strb	r3, [r2, #0]
	b	.L623
.L621:
	ldr	r3, [fp, #-20]
	ldrb	r3, [r3, #0]	@ zero_extendqisi2
	mov	r2, r3
	ldrb	r3, [fp, #-14]	@ zero_extendqisi2
	mvn	r3, r3
	and	r3, r3, #255
	and	r3, r2, r3
	and	r3, r3, #255
	and	r3, r3, #255
	ldr	r2, [fp, #-20]
	strb	r3, [r2, #0]
.L623:
	ldrb	r3, [fp, #-13]	@ zero_extendqisi2
	and	r3, r3, #2
	cmp	r3, #0
	beq	.L624
	ldr	r3, [fp, #-20]
	add	r1, r3, #1
	ldr	r3, [fp, #-20]
	add	r3, r3, #1
	ldrb	r2, [r3, #0]	@ zero_extendqisi2
	ldrb	r3, [fp, #-14]
	orr	r3, r2, r3
	and	r3, r3, #255
	strb	r3, [r1, #0]
	b	.L626
.L624:
	ldr	r3, [fp, #-20]
	add	r1, r3, #1
	ldr	r3, [fp, #-20]
	add	r3, r3, #1
	ldrb	r3, [r3, #0]	@ zero_extendqisi2
	mov	r2, r3
	ldrb	r3, [fp, #-14]	@ zero_extendqisi2
	mvn	r3, r3
	and	r3, r3, #255
	and	r3, r2, r3
	and	r3, r3, #255
	and	r3, r3, #255
	strb	r3, [r1, #0]
.L626:
	ldrb	r3, [fp, #-13]	@ zero_extendqisi2
	and	r3, r3, #4
	cmp	r3, #0
	beq	.L627
	ldr	r3, [fp, #-20]
	add	r1, r3, #16
	ldr	r3, [fp, #-20]
	add	r3, r3, #16
	ldrb	r2, [r3, #0]	@ zero_extendqisi2
	ldrb	r3, [fp, #-14]
	orr	r3, r2, r3
	and	r3, r3, #255
	strb	r3, [r1, #0]
	b	.L629
.L627:
	ldr	r3, [fp, #-20]
	add	r1, r3, #16
	ldr	r3, [fp, #-20]
	add	r3, r3, #16
	ldrb	r3, [r3, #0]	@ zero_extendqisi2
	mov	r2, r3
	ldrb	r3, [fp, #-14]	@ zero_extendqisi2
	mvn	r3, r3
	and	r3, r3, #255
	and	r3, r2, r3
	and	r3, r3, #255
	and	r3, r3, #255
	strb	r3, [r1, #0]
.L629:
	ldrb	r3, [fp, #-13]	@ zero_extendqisi2
	and	r3, r3, #8
	cmp	r3, #0
	beq	.L630
	ldr	r3, [fp, #-20]
	add	r1, r3, #17
	ldr	r3, [fp, #-20]
	add	r3, r3, #17
	ldrb	r2, [r3, #0]	@ zero_extendqisi2
	ldrb	r3, [fp, #-14]
	orr	r3, r2, r3
	and	r3, r3, #255
	strb	r3, [r1, #0]
	b	.L632
.L630:
	ldr	r3, [fp, #-20]
	add	r1, r3, #17
	ldr	r3, [fp, #-20]
	add	r3, r3, #17
	ldrb	r3, [r3, #0]	@ zero_extendqisi2
	mov	r2, r3
	ldrb	r3, [fp, #-14]	@ zero_extendqisi2
	mvn	r3, r3
	and	r3, r3, #255
	and	r3, r2, r3
	and	r3, r3, #255
	and	r3, r3, #255
	strb	r3, [r1, #0]
.L632:
	ldrb	r3, [fp, #-13]	@ zero_extendqisi2
	and	r3, r3, #16
	cmp	r3, #0
	beq	.L633
	ldr	r3, [fp, #-20]
	add	r1, r3, #32
	ldr	r3, [fp, #-20]
	add	r3, r3, #32
	ldrb	r2, [r3, #0]	@ zero_extendqisi2
	ldrb	r3, [fp, #-14]
	orr	r3, r2, r3
	and	r3, r3, #255
	strb	r3, [r1, #0]
	b	.L635
.L633:
	ldr	r3, [fp, #-20]
	add	r1, r3, #32
	ldr	r3, [fp, #-20]
	add	r3, r3, #32
	ldrb	r3, [r3, #0]	@ zero_extendqisi2
	mov	r2, r3
	ldrb	r3, [fp, #-14]	@ zero_extendqisi2
	mvn	r3, r3
	and	r3, r3, #255
	and	r3, r2, r3
	and	r3, r3, #255
	and	r3, r3, #255
	strb	r3, [r1, #0]
.L635:
	ldrb	r3, [fp, #-13]	@ zero_extendqisi2
	and	r3, r3, #32
	cmp	r3, #0
	beq	.L636
	ldr	r3, [fp, #-20]
	add	r1, r3, #33
	ldr	r3, [fp, #-20]
	add	r3, r3, #33
	ldrb	r2, [r3, #0]	@ zero_extendqisi2
	ldrb	r3, [fp, #-14]
	orr	r3, r2, r3
	and	r3, r3, #255
	strb	r3, [r1, #0]
	b	.L638
.L636:
	ldr	r3, [fp, #-20]
	add	r1, r3, #33
	ldr	r3, [fp, #-20]
	add	r3, r3, #33
	ldrb	r3, [r3, #0]	@ zero_extendqisi2
	mov	r2, r3
	ldrb	r3, [fp, #-14]	@ zero_extendqisi2
	mvn	r3, r3
	and	r3, r3, #255
	and	r3, r2, r3
	and	r3, r3, #255
	and	r3, r3, #255
	strb	r3, [r1, #0]
.L638:
	ldrb	r3, [fp, #-13]	@ zero_extendqisi2
	and	r3, r3, #64
	cmp	r3, #0
	beq	.L639
	ldr	r3, [fp, #-20]
	add	r1, r3, #48
	ldr	r3, [fp, #-20]
	add	r3, r3, #48
	ldrb	r2, [r3, #0]	@ zero_extendqisi2
	ldrb	r3, [fp, #-14]
	orr	r3, r2, r3
	and	r3, r3, #255
	strb	r3, [r1, #0]
	b	.L641
.L639:
	ldr	r3, [fp, #-20]
	add	r1, r3, #48
	ldr	r3, [fp, #-20]
	add	r3, r3, #48
	ldrb	r3, [r3, #0]	@ zero_extendqisi2
	mov	r2, r3
	ldrb	r3, [fp, #-14]	@ zero_extendqisi2
	mvn	r3, r3
	and	r3, r3, #255
	and	r3, r2, r3
	and	r3, r3, #255
	and	r3, r3, #255
	strb	r3, [r1, #0]
.L641:
	ldrb	r3, [fp, #-13]	@ zero_extendqisi2
	mov	r3, r3, asl #24
	mov	r3, r3, asr #24
	cmp	r3, #0
	bge	.L642
	ldr	r3, [fp, #-20]
	add	r1, r3, #49
	ldr	r3, [fp, #-20]
	add	r3, r3, #49
	ldrb	r2, [r3, #0]	@ zero_extendqisi2
	ldrb	r3, [fp, #-14]
	orr	r3, r2, r3
	and	r3, r3, #255
	strb	r3, [r1, #0]
	b	.L644
.L642:
	ldr	r3, [fp, #-20]
	add	r1, r3, #49
	ldr	r3, [fp, #-20]
	add	r3, r3, #49
	ldrb	r3, [r3, #0]	@ zero_extendqisi2
	mov	r2, r3
	ldrb	r3, [fp, #-14]	@ zero_extendqisi2
	mvn	r3, r3
	and	r3, r3, #255
	and	r3, r2, r3
	and	r3, r3, #255
	and	r3, r3, #255
	strb	r3, [r1, #0]
.L644:
	sub	sp, fp, #12
	ldmfd	sp, {fp, sp, pc}
.L646:
	.align	2
.L645:
	.word	GSU
	.size	_Z12fx_plot_8bitv, .-_Z12fx_plot_8bitv
	.align	2
	.type	_Z12fx_rpix_8bitv, %function
_Z12fx_rpix_8bitv:
	@ args = 0, pretend = 0, frame = 100
	@ frame_needed = 1, uses_anonymous_args = 0
	mov	ip, sp
	stmfd	sp!, {fp, ip, lr, pc}
	sub	fp, ip, #4
	sub	sp, sp, #100
	ldr	r3, .L673
	ldr	r3, [r3, #4]
	and	r3, r3, #255
	str	r3, [fp, #-28]
	ldr	r3, .L673
	ldr	r3, [r3, #8]
	and	r3, r3, #255
	str	r3, [fp, #-24]
	ldr	r3, .L673
	ldr	r3, [r3, #60]
	add	r2, r3, #1
	ldr	r3, .L673
	str	r2, [r3, #60]
	ldr	r3, .L673
	ldr	r3, [r3, #72]
	bic	r2, r3, #4864
	ldr	r3, .L673
	str	r2, [r3, #72]
	ldr	r2, .L673
	ldr	r3, .L673
	str	r3, [r2, #104]
	ldr	r3, .L673
	ldr	r2, [r3, #104]
	ldr	r3, .L673
	str	r2, [r3, #100]
	ldr	r3, .L673
	ldr	r2, [r3, #440]
	ldr	r3, [fp, #-24]
	cmp	r2, r3
	bls	.L672
	ldr	r3, [fp, #-24]
	mov	r3, r3, lsr #3
	ldr	r2, .L673
	mov	r1, #184
	mov	r3, r3, asl #2
	add	r3, r3, r2
	add	r3, r3, r1
	ldr	r0, [r3, #0]
	ldr	r3, [fp, #-28]
	mov	r3, r3, lsr #3
	ldr	r2, .L673
	mov	r1, #312
	mov	r3, r3, asl #2
	add	r3, r3, r2
	add	r3, r3, r1
	ldr	r3, [r3, #0]
	add	r2, r0, r3
	ldr	r3, [fp, #-24]
	and	r3, r3, #7
	mov	r3, r3, asl #1
	add	r3, r2, r3
	str	r3, [fp, #-20]
	ldr	r3, [fp, #-28]
	and	r2, r3, #7
	mov	r3, #128
	mov	r3, r3, asr r2
	strb	r3, [fp, #-13]
	ldr	r3, .L673
	ldr	r2, [r3, #100]
	mov	r3, #0
	str	r3, [r2, #0]
	ldr	r3, .L673
	ldr	r0, [r3, #100]
	ldr	r3, .L673
	ldr	r3, [r3, #100]
	ldr	r1, [r3, #0]
	ldr	r3, [fp, #-20]
	ldrb	r3, [r3, #0]	@ zero_extendqisi2
	mov	r2, r3
	ldrb	r3, [fp, #-13]	@ zero_extendqisi2
	and	r3, r2, r3
	cmp	r3, #0
	moveq	r3, #0
	movne	r3, #1
	orr	r3, r1, r3
	str	r3, [r0, #0]
	ldr	r3, .L673
	ldr	r3, [r3, #100]
	str	r3, [fp, #-112]
	ldr	r3, .L673
	ldr	r3, [r3, #100]
	ldr	r3, [r3, #0]
	str	r3, [fp, #-108]
	ldr	r3, [fp, #-20]
	add	r3, r3, #1
	ldrb	r3, [r3, #0]	@ zero_extendqisi2
	mov	r2, r3
	ldrb	r3, [fp, #-13]	@ zero_extendqisi2
	and	r3, r2, r3
	cmp	r3, #0
	beq	.L650
	mov	r1, #2
	str	r1, [fp, #-104]
	b	.L652
.L650:
	mov	r2, #0
	str	r2, [fp, #-104]
.L652:
	ldr	r1, [fp, #-108]
	ldr	r2, [fp, #-104]
	orr	r3, r1, r2
	ldr	r1, [fp, #-112]
	str	r3, [r1, #0]
	ldr	r3, .L673
	ldr	r3, [r3, #100]
	str	r3, [fp, #-100]
	ldr	r3, .L673
	ldr	r3, [r3, #100]
	ldr	r3, [r3, #0]
	str	r3, [fp, #-96]
	ldr	r3, [fp, #-20]
	add	r3, r3, #16
	ldrb	r3, [r3, #0]	@ zero_extendqisi2
	mov	r2, r3
	ldrb	r3, [fp, #-13]	@ zero_extendqisi2
	and	r3, r2, r3
	cmp	r3, #0
	beq	.L653
	mov	r2, #4
	str	r2, [fp, #-92]
	b	.L655
.L653:
	mov	r3, #0
	str	r3, [fp, #-92]
.L655:
	ldr	r1, [fp, #-96]
	ldr	r2, [fp, #-92]
	orr	r3, r1, r2
	ldr	r1, [fp, #-100]
	str	r3, [r1, #0]
	ldr	r3, .L673
	ldr	r3, [r3, #100]
	str	r3, [fp, #-88]
	ldr	r3, .L673
	ldr	r3, [r3, #100]
	ldr	r3, [r3, #0]
	str	r3, [fp, #-84]
	ldr	r3, [fp, #-20]
	add	r3, r3, #17
	ldrb	r3, [r3, #0]	@ zero_extendqisi2
	mov	r2, r3
	ldrb	r3, [fp, #-13]	@ zero_extendqisi2
	and	r3, r2, r3
	cmp	r3, #0
	beq	.L656
	mov	r2, #8
	str	r2, [fp, #-80]
	b	.L658
.L656:
	mov	r3, #0
	str	r3, [fp, #-80]
.L658:
	ldr	r1, [fp, #-84]
	ldr	r2, [fp, #-80]
	orr	r3, r1, r2
	ldr	r1, [fp, #-88]
	str	r3, [r1, #0]
	ldr	r3, .L673
	ldr	r3, [r3, #100]
	str	r3, [fp, #-76]
	ldr	r3, .L673
	ldr	r3, [r3, #100]
	ldr	r3, [r3, #0]
	str	r3, [fp, #-72]
	ldr	r3, [fp, #-20]
	add	r3, r3, #32
	ldrb	r3, [r3, #0]	@ zero_extendqisi2
	mov	r2, r3
	ldrb	r3, [fp, #-13]	@ zero_extendqisi2
	and	r3, r2, r3
	cmp	r3, #0
	beq	.L659
	mov	r2, #16
	str	r2, [fp, #-68]
	b	.L661
.L659:
	mov	r3, #0
	str	r3, [fp, #-68]
.L661:
	ldr	r1, [fp, #-72]
	ldr	r2, [fp, #-68]
	orr	r3, r1, r2
	ldr	r1, [fp, #-76]
	str	r3, [r1, #0]
	ldr	r3, .L673
	ldr	r3, [r3, #100]
	str	r3, [fp, #-64]
	ldr	r3, .L673
	ldr	r3, [r3, #100]
	ldr	r3, [r3, #0]
	str	r3, [fp, #-60]
	ldr	r3, [fp, #-20]
	add	r3, r3, #33
	ldrb	r3, [r3, #0]	@ zero_extendqisi2
	mov	r2, r3
	ldrb	r3, [fp, #-13]	@ zero_extendqisi2
	and	r3, r2, r3
	cmp	r3, #0
	beq	.L662
	mov	r2, #32
	str	r2, [fp, #-56]
	b	.L664
.L662:
	mov	r3, #0
	str	r3, [fp, #-56]
.L664:
	ldr	r1, [fp, #-60]
	ldr	r2, [fp, #-56]
	orr	r3, r1, r2
	ldr	r1, [fp, #-64]
	str	r3, [r1, #0]
	ldr	r3, .L673
	ldr	r3, [r3, #100]
	str	r3, [fp, #-52]
	ldr	r3, .L673
	ldr	r3, [r3, #100]
	ldr	r3, [r3, #0]
	str	r3, [fp, #-48]
	ldr	r3, [fp, #-20]
	add	r3, r3, #48
	ldrb	r3, [r3, #0]	@ zero_extendqisi2
	mov	r2, r3
	ldrb	r3, [fp, #-13]	@ zero_extendqisi2
	and	r3, r2, r3
	cmp	r3, #0
	beq	.L665
	mov	r2, #64
	str	r2, [fp, #-44]
	b	.L667
.L665:
	mov	r3, #0
	str	r3, [fp, #-44]
.L667:
	ldr	r1, [fp, #-48]
	ldr	r2, [fp, #-44]
	orr	r3, r1, r2
	ldr	r1, [fp, #-52]
	str	r3, [r1, #0]
	ldr	r3, .L673
	ldr	r3, [r3, #100]
	str	r3, [fp, #-40]
	ldr	r3, .L673
	ldr	r3, [r3, #100]
	ldr	r3, [r3, #0]
	str	r3, [fp, #-36]
	ldr	r3, [fp, #-20]
	add	r3, r3, #49
	ldrb	r3, [r3, #0]	@ zero_extendqisi2
	mov	r2, r3
	ldrb	r3, [fp, #-13]	@ zero_extendqisi2
	and	r3, r2, r3
	cmp	r3, #0
	beq	.L668
	mov	r2, #128
	str	r2, [fp, #-32]
	b	.L670
.L668:
	mov	r3, #0
	str	r3, [fp, #-32]
.L670:
	ldr	r1, [fp, #-36]
	ldr	r2, [fp, #-32]
	orr	r3, r1, r2
	ldr	r1, [fp, #-40]
	str	r3, [r1, #0]
	ldr	r3, .L673
	ldr	r3, [r3, #100]
	ldr	r2, [r3, #0]
	ldr	r3, .L673
	str	r2, [r3, #120]
	ldr	r3, .L673
	ldr	r2, [r3, #100]
	ldr	r3, .L673+4
	cmp	r2, r3
	bne	.L672
	ldr	r3, .L673
	ldr	r2, [r3, #468]
	ldr	r3, .L673
	ldr	r3, [r3, #56]
	mov	r3, r3, asl #16
	mov	r3, r3, lsr #16
	add	r3, r2, r3
	ldrb	r3, [r3, #0]	@ zero_extendqisi2
	ldr	r2, .L673
	strb	r3, [r2, #108]
.L672:
	sub	sp, fp, #12
	ldmfd	sp, {fp, sp, pc}
.L674:
	.align	2
.L673:
	.word	GSU
	.word	GSU+56
	.size	_Z12fx_rpix_8bitv, .-_Z12fx_rpix_8bitv
	.align	2
	.type	_Z7fx_swapv, %function
_Z7fx_swapv:
	@ args = 0, pretend = 0, frame = 8
	@ frame_needed = 1, uses_anonymous_args = 0
	mov	ip, sp
	stmfd	sp!, {fp, ip, lr, pc}
	sub	fp, ip, #4
	sub	sp, sp, #8
	ldr	r3, .L679
	ldr	r3, [r3, #104]
	ldr	r3, [r3, #0]
	strb	r3, [fp, #-18]
	ldr	r3, .L679
	ldr	r3, [r3, #104]
	ldr	r3, [r3, #0]
	mov	r3, r3, lsr #8
	strb	r3, [fp, #-17]
	ldrb	r3, [fp, #-18]	@ zero_extendqisi2
	mov	r2, r3, asl #8
	ldrb	r3, [fp, #-17]	@ zero_extendqisi2
	orr	r3, r2, r3
	str	r3, [fp, #-16]
	ldr	r3, .L679
	ldr	r3, [r3, #60]
	add	r2, r3, #1
	ldr	r3, .L679
	str	r2, [r3, #60]
	ldr	r3, .L679
	ldr	r2, [r3, #100]
	ldr	r3, [fp, #-16]
	str	r3, [r2, #0]
	ldr	r2, .L679
	ldr	r3, [fp, #-16]
	str	r3, [r2, #116]
	ldr	r2, .L679
	ldr	r3, [fp, #-16]
	str	r3, [r2, #120]
	ldr	r3, .L679
	ldr	r2, [r3, #100]
	ldr	r3, .L679+4
	cmp	r2, r3
	bne	.L676
	ldr	r3, .L679
	ldr	r2, [r3, #468]
	ldr	r3, .L679
	ldr	r3, [r3, #56]
	mov	r3, r3, asl #16
	mov	r3, r3, lsr #16
	add	r3, r2, r3
	ldrb	r3, [r3, #0]	@ zero_extendqisi2
	ldr	r2, .L679
	strb	r3, [r2, #108]
.L676:
	ldr	r3, .L679
	ldr	r3, [r3, #72]
	bic	r2, r3, #4864
	ldr	r3, .L679
	str	r2, [r3, #72]
	ldr	r2, .L679
	ldr	r3, .L679
	str	r3, [r2, #104]
	ldr	r3, .L679
	ldr	r2, [r3, #104]
	ldr	r3, .L679
	str	r2, [r3, #100]
	sub	sp, fp, #12
	ldmfd	sp, {fp, sp, pc}
.L680:
	.align	2
.L679:
	.word	GSU
	.word	GSU+56
	.size	_Z7fx_swapv, .-_Z7fx_swapv
	.align	2
	.type	_Z8fx_colorv, %function
_Z8fx_colorv:
	@ args = 0, pretend = 0, frame = 4
	@ frame_needed = 1, uses_anonymous_args = 0
	mov	ip, sp
	stmfd	sp!, {fp, ip, lr, pc}
	sub	fp, ip, #4
	sub	sp, sp, #4
	ldr	r3, .L688
	ldr	r3, [r3, #104]
	ldr	r3, [r3, #0]
	strb	r3, [fp, #-13]
	ldr	r3, .L688
	ldr	r3, [r3, #68]
	and	r3, r3, #4
	cmp	r3, #0
	beq	.L682
	ldrb	r3, [fp, #-13]	@ zero_extendqisi2
	and	r2, r3, #255
	mov	r3, #240
	and	r2, r2, r3
	ldrb	r3, [fp, #-13]	@ zero_extendqisi2
	mov	r3, r3, lsr #4
	and	r3, r3, #255
	orr	r3, r2, r3
	and	r3, r3, #255
	strb	r3, [fp, #-13]
.L682:
	ldr	r3, .L688
	ldr	r3, [r3, #68]
	and	r3, r3, #8
	cmp	r3, #0
	beq	.L684
	ldr	r3, .L688
	ldr	r3, [r3, #64]
	and	r2, r3, #240
	ldr	r3, .L688
	str	r2, [r3, #64]
	ldr	r3, .L688
	ldr	r2, [r3, #64]
	ldrb	r3, [fp, #-13]	@ zero_extendqisi2
	and	r3, r3, #15
	orr	r2, r2, r3
	ldr	r3, .L688
	str	r2, [r3, #64]
	b	.L686
.L684:
	ldrb	r2, [fp, #-13]	@ zero_extendqisi2
	ldr	r3, .L688
	str	r2, [r3, #64]
.L686:
	ldr	r3, .L688
	ldr	r3, [r3, #72]
	bic	r2, r3, #4864
	ldr	r3, .L688
	str	r2, [r3, #72]
	ldr	r2, .L688
	ldr	r3, .L688
	str	r3, [r2, #104]
	ldr	r3, .L688
	ldr	r2, [r3, #104]
	ldr	r3, .L688
	str	r2, [r3, #100]
	ldr	r3, .L688
	ldr	r3, [r3, #60]
	add	r2, r3, #1
	ldr	r3, .L688
	str	r2, [r3, #60]
	ldmib	sp, {fp, sp, pc}
.L689:
	.align	2
.L688:
	.word	GSU
	.size	_Z8fx_colorv, .-_Z8fx_colorv
	.align	2
	.type	_Z6fx_notv, %function
_Z6fx_notv:
	@ args = 0, pretend = 0, frame = 4
	@ frame_needed = 1, uses_anonymous_args = 0
	mov	ip, sp
	stmfd	sp!, {fp, ip, lr, pc}
	sub	fp, ip, #4
	sub	sp, sp, #4
	ldr	r3, .L694
	ldr	r3, [r3, #104]
	ldr	r3, [r3, #0]
	mvn	r3, r3
	str	r3, [fp, #-16]
	ldr	r3, .L694
	ldr	r3, [r3, #60]
	add	r2, r3, #1
	ldr	r3, .L694
	str	r2, [r3, #60]
	ldr	r3, .L694
	ldr	r2, [r3, #100]
	ldr	r3, [fp, #-16]
	str	r3, [r2, #0]
	ldr	r2, .L694
	ldr	r3, [fp, #-16]
	str	r3, [r2, #116]
	ldr	r2, .L694
	ldr	r3, [fp, #-16]
	str	r3, [r2, #120]
	ldr	r3, .L694
	ldr	r2, [r3, #100]
	ldr	r3, .L694+4
	cmp	r2, r3
	bne	.L691
	ldr	r3, .L694
	ldr	r2, [r3, #468]
	ldr	r3, .L694
	ldr	r3, [r3, #56]
	mov	r3, r3, asl #16
	mov	r3, r3, lsr #16
	add	r3, r2, r3
	ldrb	r3, [r3, #0]	@ zero_extendqisi2
	ldr	r2, .L694
	strb	r3, [r2, #108]
.L691:
	ldr	r3, .L694
	ldr	r3, [r3, #72]
	bic	r2, r3, #4864
	ldr	r3, .L694
	str	r2, [r3, #72]
	ldr	r2, .L694
	ldr	r3, .L694
	str	r3, [r2, #104]
	ldr	r3, .L694
	ldr	r2, [r3, #104]
	ldr	r3, .L694
	str	r2, [r3, #100]
	ldmib	sp, {fp, sp, pc}
.L695:
	.align	2
.L694:
	.word	GSU
	.word	GSU+56
	.size	_Z6fx_notv, .-_Z6fx_notv
	.align	2
	.type	_Z9fx_add_r0v, %function
_Z9fx_add_r0v:
	@ args = 0, pretend = 0, frame = 4
	@ frame_needed = 1, uses_anonymous_args = 0
	mov	ip, sp
	stmfd	sp!, {fp, ip, lr, pc}
	sub	fp, ip, #4
	sub	sp, sp, #4
	ldr	r3, .L700
	ldr	r3, [r3, #104]
	ldr	r3, [r3, #0]
	mov	r3, r3, asl #16
	mov	r3, r3, lsr #16
	mov	r2, r3
	ldr	r3, .L700
	ldr	r3, [r3, #0]
	mov	r3, r3, asl #16
	mov	r3, r3, lsr #16
	add	r3, r2, r3
	str	r3, [fp, #-16]
	ldr	r2, [fp, #-16]
	ldr	r3, .L700+4
	cmp	r2, r3
	movle	r2, #0
	movgt	r2, #1
	ldr	r3, .L700
	str	r2, [r3, #124]
	ldr	r3, .L700
	ldr	r3, [r3, #104]
	ldr	r2, [r3, #0]
	ldr	r3, .L700
	ldr	r3, [r3, #0]
	eor	r3, r2, r3
	mvn	r1, r3
	ldr	r3, .L700
	ldr	r2, [r3, #0]
	ldr	r3, [fp, #-16]
	eor	r3, r2, r3
	and	r3, r1, r3
	and	r2, r3, #32768
	ldr	r3, .L700
	str	r2, [r3, #128]
	ldr	r2, [fp, #-16]
	ldr	r3, .L700
	str	r2, [r3, #116]
	ldr	r2, [fp, #-16]
	ldr	r3, .L700
	str	r2, [r3, #120]
	ldr	r3, .L700
	ldr	r3, [r3, #60]
	add	r2, r3, #1
	ldr	r3, .L700
	str	r2, [r3, #60]
	ldr	r3, .L700
	ldr	r2, [r3, #100]
	ldr	r3, [fp, #-16]
	str	r3, [r2, #0]
	ldr	r3, .L700
	ldr	r2, [r3, #100]
	ldr	r3, .L700+8
	cmp	r2, r3
	bne	.L697
	ldr	r3, .L700
	ldr	r2, [r3, #468]
	ldr	r3, .L700
	ldr	r3, [r3, #56]
	mov	r3, r3, asl #16
	mov	r3, r3, lsr #16
	add	r3, r2, r3
	ldrb	r3, [r3, #0]	@ zero_extendqisi2
	ldr	r2, .L700
	strb	r3, [r2, #108]
.L697:
	ldr	r3, .L700
	ldr	r3, [r3, #72]
	bic	r2, r3, #4864
	ldr	r3, .L700
	str	r2, [r3, #72]
	ldr	r2, .L700
	ldr	r3, .L700
	str	r3, [r2, #104]
	ldr	r3, .L700
	ldr	r2, [r3, #104]
	ldr	r3, .L700
	str	r2, [r3, #100]
	ldmib	sp, {fp, sp, pc}
.L701:
	.align	2
.L700:
	.word	GSU
	.word	65535
	.word	GSU+56
	.size	_Z9fx_add_r0v, .-_Z9fx_add_r0v
	.align	2
	.type	_Z9fx_add_r1v, %function
_Z9fx_add_r1v:
	@ args = 0, pretend = 0, frame = 4
	@ frame_needed = 1, uses_anonymous_args = 0
	mov	ip, sp
	stmfd	sp!, {fp, ip, lr, pc}
	sub	fp, ip, #4
	sub	sp, sp, #4
	ldr	r3, .L706
	ldr	r3, [r3, #104]
	ldr	r3, [r3, #0]
	mov	r3, r3, asl #16
	mov	r3, r3, lsr #16
	mov	r2, r3
	ldr	r3, .L706
	ldr	r3, [r3, #4]
	mov	r3, r3, asl #16
	mov	r3, r3, lsr #16
	add	r3, r2, r3
	str	r3, [fp, #-16]
	ldr	r2, [fp, #-16]
	ldr	r3, .L706+4
	cmp	r2, r3
	movle	r2, #0
	movgt	r2, #1
	ldr	r3, .L706
	str	r2, [r3, #124]
	ldr	r3, .L706
	ldr	r3, [r3, #104]
	ldr	r2, [r3, #0]
	ldr	r3, .L706
	ldr	r3, [r3, #4]
	eor	r3, r2, r3
	mvn	r1, r3
	ldr	r3, .L706
	ldr	r2, [r3, #4]
	ldr	r3, [fp, #-16]
	eor	r3, r2, r3
	and	r3, r1, r3
	and	r2, r3, #32768
	ldr	r3, .L706
	str	r2, [r3, #128]
	ldr	r2, [fp, #-16]
	ldr	r3, .L706
	str	r2, [r3, #116]
	ldr	r2, [fp, #-16]
	ldr	r3, .L706
	str	r2, [r3, #120]
	ldr	r3, .L706
	ldr	r3, [r3, #60]
	add	r2, r3, #1
	ldr	r3, .L706
	str	r2, [r3, #60]
	ldr	r3, .L706
	ldr	r2, [r3, #100]
	ldr	r3, [fp, #-16]
	str	r3, [r2, #0]
	ldr	r3, .L706
	ldr	r2, [r3, #100]
	ldr	r3, .L706+8
	cmp	r2, r3
	bne	.L703
	ldr	r3, .L706
	ldr	r2, [r3, #468]
	ldr	r3, .L706
	ldr	r3, [r3, #56]
	mov	r3, r3, asl #16
	mov	r3, r3, lsr #16
	add	r3, r2, r3
	ldrb	r3, [r3, #0]	@ zero_extendqisi2
	ldr	r2, .L706
	strb	r3, [r2, #108]
.L703:
	ldr	r3, .L706
	ldr	r3, [r3, #72]
	bic	r2, r3, #4864
	ldr	r3, .L706
	str	r2, [r3, #72]
	ldr	r2, .L706
	ldr	r3, .L706
	str	r3, [r2, #104]
	ldr	r3, .L706
	ldr	r2, [r3, #104]
	ldr	r3, .L706
	str	r2, [r3, #100]
	ldmib	sp, {fp, sp, pc}
.L707:
	.align	2
.L706:
	.word	GSU
	.word	65535
	.word	GSU+56
	.size	_Z9fx_add_r1v, .-_Z9fx_add_r1v
	.align	2
	.type	_Z9fx_add_r2v, %function
_Z9fx_add_r2v:
	@ args = 0, pretend = 0, frame = 4
	@ frame_needed = 1, uses_anonymous_args = 0
	mov	ip, sp
	stmfd	sp!, {fp, ip, lr, pc}
	sub	fp, ip, #4
	sub	sp, sp, #4
	ldr	r3, .L712
	ldr	r3, [r3, #104]
	ldr	r3, [r3, #0]
	mov	r3, r3, asl #16
	mov	r3, r3, lsr #16
	mov	r2, r3
	ldr	r3, .L712
	ldr	r3, [r3, #8]
	mov	r3, r3, asl #16
	mov	r3, r3, lsr #16
	add	r3, r2, r3
	str	r3, [fp, #-16]
	ldr	r2, [fp, #-16]
	ldr	r3, .L712+4
	cmp	r2, r3
	movle	r2, #0
	movgt	r2, #1
	ldr	r3, .L712
	str	r2, [r3, #124]
	ldr	r3, .L712
	ldr	r3, [r3, #104]
	ldr	r2, [r3, #0]
	ldr	r3, .L712
	ldr	r3, [r3, #8]
	eor	r3, r2, r3
	mvn	r1, r3
	ldr	r3, .L712
	ldr	r2, [r3, #8]
	ldr	r3, [fp, #-16]
	eor	r3, r2, r3
	and	r3, r1, r3
	and	r2, r3, #32768
	ldr	r3, .L712
	str	r2, [r3, #128]
	ldr	r2, [fp, #-16]
	ldr	r3, .L712
	str	r2, [r3, #116]
	ldr	r2, [fp, #-16]
	ldr	r3, .L712
	str	r2, [r3, #120]
	ldr	r3, .L712
	ldr	r3, [r3, #60]
	add	r2, r3, #1
	ldr	r3, .L712
	str	r2, [r3, #60]
	ldr	r3, .L712
	ldr	r2, [r3, #100]
	ldr	r3, [fp, #-16]
	str	r3, [r2, #0]
	ldr	r3, .L712
	ldr	r2, [r3, #100]
	ldr	r3, .L712+8
	cmp	r2, r3
	bne	.L709
	ldr	r3, .L712
	ldr	r2, [r3, #468]
	ldr	r3, .L712
	ldr	r3, [r3, #56]
	mov	r3, r3, asl #16
	mov	r3, r3, lsr #16
	add	r3, r2, r3
	ldrb	r3, [r3, #0]	@ zero_extendqisi2
	ldr	r2, .L712
	strb	r3, [r2, #108]
.L709:
	ldr	r3, .L712
	ldr	r3, [r3, #72]
	bic	r2, r3, #4864
	ldr	r3, .L712
	str	r2, [r3, #72]
	ldr	r2, .L712
	ldr	r3, .L712
	str	r3, [r2, #104]
	ldr	r3, .L712
	ldr	r2, [r3, #104]
	ldr	r3, .L712
	str	r2, [r3, #100]
	ldmib	sp, {fp, sp, pc}
.L713:
	.align	2
.L712:
	.word	GSU
	.word	65535
	.word	GSU+56
	.size	_Z9fx_add_r2v, .-_Z9fx_add_r2v
	.align	2
	.type	_Z9fx_add_r3v, %function
_Z9fx_add_r3v:
	@ args = 0, pretend = 0, frame = 4
	@ frame_needed = 1, uses_anonymous_args = 0
	mov	ip, sp
	stmfd	sp!, {fp, ip, lr, pc}
	sub	fp, ip, #4
	sub	sp, sp, #4
	ldr	r3, .L718
	ldr	r3, [r3, #104]
	ldr	r3, [r3, #0]
	mov	r3, r3, asl #16
	mov	r3, r3, lsr #16
	mov	r2, r3
	ldr	r3, .L718
	ldr	r3, [r3, #12]
	mov	r3, r3, asl #16
	mov	r3, r3, lsr #16
	add	r3, r2, r3
	str	r3, [fp, #-16]
	ldr	r2, [fp, #-16]
	ldr	r3, .L718+4
	cmp	r2, r3
	movle	r2, #0
	movgt	r2, #1
	ldr	r3, .L718
	str	r2, [r3, #124]
	ldr	r3, .L718
	ldr	r3, [r3, #104]
	ldr	r2, [r3, #0]
	ldr	r3, .L718
	ldr	r3, [r3, #12]
	eor	r3, r2, r3
	mvn	r1, r3
	ldr	r3, .L718
	ldr	r2, [r3, #12]
	ldr	r3, [fp, #-16]
	eor	r3, r2, r3
	and	r3, r1, r3
	and	r2, r3, #32768
	ldr	r3, .L718
	str	r2, [r3, #128]
	ldr	r2, [fp, #-16]
	ldr	r3, .L718
	str	r2, [r3, #116]
	ldr	r2, [fp, #-16]
	ldr	r3, .L718
	str	r2, [r3, #120]
	ldr	r3, .L718
	ldr	r3, [r3, #60]
	add	r2, r3, #1
	ldr	r3, .L718
	str	r2, [r3, #60]
	ldr	r3, .L718
	ldr	r2, [r3, #100]
	ldr	r3, [fp, #-16]
	str	r3, [r2, #0]
	ldr	r3, .L718
	ldr	r2, [r3, #100]
	ldr	r3, .L718+8
	cmp	r2, r3
	bne	.L715
	ldr	r3, .L718
	ldr	r2, [r3, #468]
	ldr	r3, .L718
	ldr	r3, [r3, #56]
	mov	r3, r3, asl #16
	mov	r3, r3, lsr #16
	add	r3, r2, r3
	ldrb	r3, [r3, #0]	@ zero_extendqisi2
	ldr	r2, .L718
	strb	r3, [r2, #108]
.L715:
	ldr	r3, .L718
	ldr	r3, [r3, #72]
	bic	r2, r3, #4864
	ldr	r3, .L718
	str	r2, [r3, #72]
	ldr	r2, .L718
	ldr	r3, .L718
	str	r3, [r2, #104]
	ldr	r3, .L718
	ldr	r2, [r3, #104]
	ldr	r3, .L718
	str	r2, [r3, #100]
	ldmib	sp, {fp, sp, pc}
.L719:
	.align	2
.L718:
	.word	GSU
	.word	65535
	.word	GSU+56
	.size	_Z9fx_add_r3v, .-_Z9fx_add_r3v
	.align	2
	.type	_Z9fx_add_r4v, %function
_Z9fx_add_r4v:
	@ args = 0, pretend = 0, frame = 4
	@ frame_needed = 1, uses_anonymous_args = 0
	mov	ip, sp
	stmfd	sp!, {fp, ip, lr, pc}
	sub	fp, ip, #4
	sub	sp, sp, #4
	ldr	r3, .L724
	ldr	r3, [r3, #104]
	ldr	r3, [r3, #0]
	mov	r3, r3, asl #16
	mov	r3, r3, lsr #16
	mov	r2, r3
	ldr	r3, .L724
	ldr	r3, [r3, #16]
	mov	r3, r3, asl #16
	mov	r3, r3, lsr #16
	add	r3, r2, r3
	str	r3, [fp, #-16]
	ldr	r2, [fp, #-16]
	ldr	r3, .L724+4
	cmp	r2, r3
	movle	r2, #0
	movgt	r2, #1
	ldr	r3, .L724
	str	r2, [r3, #124]
	ldr	r3, .L724
	ldr	r3, [r3, #104]
	ldr	r2, [r3, #0]
	ldr	r3, .L724
	ldr	r3, [r3, #16]
	eor	r3, r2, r3
	mvn	r1, r3
	ldr	r3, .L724
	ldr	r2, [r3, #16]
	ldr	r3, [fp, #-16]
	eor	r3, r2, r3
	and	r3, r1, r3
	and	r2, r3, #32768
	ldr	r3, .L724
	str	r2, [r3, #128]
	ldr	r2, [fp, #-16]
	ldr	r3, .L724
	str	r2, [r3, #116]
	ldr	r2, [fp, #-16]
	ldr	r3, .L724
	str	r2, [r3, #120]
	ldr	r3, .L724
	ldr	r3, [r3, #60]
	add	r2, r3, #1
	ldr	r3, .L724
	str	r2, [r3, #60]
	ldr	r3, .L724
	ldr	r2, [r3, #100]
	ldr	r3, [fp, #-16]
	str	r3, [r2, #0]
	ldr	r3, .L724
	ldr	r2, [r3, #100]
	ldr	r3, .L724+8
	cmp	r2, r3
	bne	.L721
	ldr	r3, .L724
	ldr	r2, [r3, #468]
	ldr	r3, .L724
	ldr	r3, [r3, #56]
	mov	r3, r3, asl #16
	mov	r3, r3, lsr #16
	add	r3, r2, r3
	ldrb	r3, [r3, #0]	@ zero_extendqisi2
	ldr	r2, .L724
	strb	r3, [r2, #108]
.L721:
	ldr	r3, .L724
	ldr	r3, [r3, #72]
	bic	r2, r3, #4864
	ldr	r3, .L724
	str	r2, [r3, #72]
	ldr	r2, .L724
	ldr	r3, .L724
	str	r3, [r2, #104]
	ldr	r3, .L724
	ldr	r2, [r3, #104]
	ldr	r3, .L724
	str	r2, [r3, #100]
	ldmib	sp, {fp, sp, pc}
.L725:
	.align	2
.L724:
	.word	GSU
	.word	65535
	.word	GSU+56
	.size	_Z9fx_add_r4v, .-_Z9fx_add_r4v
	.align	2
	.type	_Z9fx_add_r5v, %function
_Z9fx_add_r5v:
	@ args = 0, pretend = 0, frame = 4
	@ frame_needed = 1, uses_anonymous_args = 0
	mov	ip, sp
	stmfd	sp!, {fp, ip, lr, pc}
	sub	fp, ip, #4
	sub	sp, sp, #4
	ldr	r3, .L730
	ldr	r3, [r3, #104]
	ldr	r3, [r3, #0]
	mov	r3, r3, asl #16
	mov	r3, r3, lsr #16
	mov	r2, r3
	ldr	r3, .L730
	ldr	r3, [r3, #20]
	mov	r3, r3, asl #16
	mov	r3, r3, lsr #16
	add	r3, r2, r3
	str	r3, [fp, #-16]
	ldr	r2, [fp, #-16]
	ldr	r3, .L730+4
	cmp	r2, r3
	movle	r2, #0
	movgt	r2, #1
	ldr	r3, .L730
	str	r2, [r3, #124]
	ldr	r3, .L730
	ldr	r3, [r3, #104]
	ldr	r2, [r3, #0]
	ldr	r3, .L730
	ldr	r3, [r3, #20]
	eor	r3, r2, r3
	mvn	r1, r3
	ldr	r3, .L730
	ldr	r2, [r3, #20]
	ldr	r3, [fp, #-16]
	eor	r3, r2, r3
	and	r3, r1, r3
	and	r2, r3, #32768
	ldr	r3, .L730
	str	r2, [r3, #128]
	ldr	r2, [fp, #-16]
	ldr	r3, .L730
	str	r2, [r3, #116]
	ldr	r2, [fp, #-16]
	ldr	r3, .L730
	str	r2, [r3, #120]
	ldr	r3, .L730
	ldr	r3, [r3, #60]
	add	r2, r3, #1
	ldr	r3, .L730
	str	r2, [r3, #60]
	ldr	r3, .L730
	ldr	r2, [r3, #100]
	ldr	r3, [fp, #-16]
	str	r3, [r2, #0]
	ldr	r3, .L730
	ldr	r2, [r3, #100]
	ldr	r3, .L730+8
	cmp	r2, r3
	bne	.L727
	ldr	r3, .L730
	ldr	r2, [r3, #468]
	ldr	r3, .L730
	ldr	r3, [r3, #56]
	mov	r3, r3, asl #16
	mov	r3, r3, lsr #16
	add	r3, r2, r3
	ldrb	r3, [r3, #0]	@ zero_extendqisi2
	ldr	r2, .L730
	strb	r3, [r2, #108]
.L727:
	ldr	r3, .L730
	ldr	r3, [r3, #72]
	bic	r2, r3, #4864
	ldr	r3, .L730
	str	r2, [r3, #72]
	ldr	r2, .L730
	ldr	r3, .L730
	str	r3, [r2, #104]
	ldr	r3, .L730
	ldr	r2, [r3, #104]
	ldr	r3, .L730
	str	r2, [r3, #100]
	ldmib	sp, {fp, sp, pc}
.L731:
	.align	2
.L730:
	.word	GSU
	.word	65535
	.word	GSU+56
	.size	_Z9fx_add_r5v, .-_Z9fx_add_r5v
	.align	2
	.type	_Z9fx_add_r6v, %function
_Z9fx_add_r6v:
	@ args = 0, pretend = 0, frame = 4
	@ frame_needed = 1, uses_anonymous_args = 0
	mov	ip, sp
	stmfd	sp!, {fp, ip, lr, pc}
	sub	fp, ip, #4
	sub	sp, sp, #4
	ldr	r3, .L736
	ldr	r3, [r3, #104]
	ldr	r3, [r3, #0]
	mov	r3, r3, asl #16
	mov	r3, r3, lsr #16
	mov	r2, r3
	ldr	r3, .L736
	ldr	r3, [r3, #24]
	mov	r3, r3, asl #16
	mov	r3, r3, lsr #16
	add	r3, r2, r3
	str	r3, [fp, #-16]
	ldr	r2, [fp, #-16]
	ldr	r3, .L736+4
	cmp	r2, r3
	movle	r2, #0
	movgt	r2, #1
	ldr	r3, .L736
	str	r2, [r3, #124]
	ldr	r3, .L736
	ldr	r3, [r3, #104]
	ldr	r2, [r3, #0]
	ldr	r3, .L736
	ldr	r3, [r3, #24]
	eor	r3, r2, r3
	mvn	r1, r3
	ldr	r3, .L736
	ldr	r2, [r3, #24]
	ldr	r3, [fp, #-16]
	eor	r3, r2, r3
	and	r3, r1, r3
	and	r2, r3, #32768
	ldr	r3, .L736
	str	r2, [r3, #128]
	ldr	r2, [fp, #-16]
	ldr	r3, .L736
	str	r2, [r3, #116]
	ldr	r2, [fp, #-16]
	ldr	r3, .L736
	str	r2, [r3, #120]
	ldr	r3, .L736
	ldr	r3, [r3, #60]
	add	r2, r3, #1
	ldr	r3, .L736
	str	r2, [r3, #60]
	ldr	r3, .L736
	ldr	r2, [r3, #100]
	ldr	r3, [fp, #-16]
	str	r3, [r2, #0]
	ldr	r3, .L736
	ldr	r2, [r3, #100]
	ldr	r3, .L736+8
	cmp	r2, r3
	bne	.L733
	ldr	r3, .L736
	ldr	r2, [r3, #468]
	ldr	r3, .L736
	ldr	r3, [r3, #56]
	mov	r3, r3, asl #16
	mov	r3, r3, lsr #16
	add	r3, r2, r3
	ldrb	r3, [r3, #0]	@ zero_extendqisi2
	ldr	r2, .L736
	strb	r3, [r2, #108]
.L733:
	ldr	r3, .L736
	ldr	r3, [r3, #72]
	bic	r2, r3, #4864
	ldr	r3, .L736
	str	r2, [r3, #72]
	ldr	r2, .L736
	ldr	r3, .L736
	str	r3, [r2, #104]
	ldr	r3, .L736
	ldr	r2, [r3, #104]
	ldr	r3, .L736
	str	r2, [r3, #100]
	ldmib	sp, {fp, sp, pc}
.L737:
	.align	2
.L736:
	.word	GSU
	.word	65535
	.word	GSU+56
	.size	_Z9fx_add_r6v, .-_Z9fx_add_r6v
	.align	2
	.type	_Z9fx_add_r7v, %function
_Z9fx_add_r7v:
	@ args = 0, pretend = 0, frame = 4
	@ frame_needed = 1, uses_anonymous_args = 0
	mov	ip, sp
	stmfd	sp!, {fp, ip, lr, pc}
	sub	fp, ip, #4
	sub	sp, sp, #4
	ldr	r3, .L742
	ldr	r3, [r3, #104]
	ldr	r3, [r3, #0]
	mov	r3, r3, asl #16
	mov	r3, r3, lsr #16
	mov	r2, r3
	ldr	r3, .L742
	ldr	r3, [r3, #28]
	mov	r3, r3, asl #16
	mov	r3, r3, lsr #16
	add	r3, r2, r3
	str	r3, [fp, #-16]
	ldr	r2, [fp, #-16]
	ldr	r3, .L742+4
	cmp	r2, r3
	movle	r2, #0
	movgt	r2, #1
	ldr	r3, .L742
	str	r2, [r3, #124]
	ldr	r3, .L742
	ldr	r3, [r3, #104]
	ldr	r2, [r3, #0]
	ldr	r3, .L742
	ldr	r3, [r3, #28]
	eor	r3, r2, r3
	mvn	r1, r3
	ldr	r3, .L742
	ldr	r2, [r3, #28]
	ldr	r3, [fp, #-16]
	eor	r3, r2, r3
	and	r3, r1, r3
	and	r2, r3, #32768
	ldr	r3, .L742
	str	r2, [r3, #128]
	ldr	r2, [fp, #-16]
	ldr	r3, .L742
	str	r2, [r3, #116]
	ldr	r2, [fp, #-16]
	ldr	r3, .L742
	str	r2, [r3, #120]
	ldr	r3, .L742
	ldr	r3, [r3, #60]
	add	r2, r3, #1
	ldr	r3, .L742
	str	r2, [r3, #60]
	ldr	r3, .L742
	ldr	r2, [r3, #100]
	ldr	r3, [fp, #-16]
	str	r3, [r2, #0]
	ldr	r3, .L742
	ldr	r2, [r3, #100]
	ldr	r3, .L742+8
	cmp	r2, r3
	bne	.L739
	ldr	r3, .L742
	ldr	r2, [r3, #468]
	ldr	r3, .L742
	ldr	r3, [r3, #56]
	mov	r3, r3, asl #16
	mov	r3, r3, lsr #16
	add	r3, r2, r3
	ldrb	r3, [r3, #0]	@ zero_extendqisi2
	ldr	r2, .L742
	strb	r3, [r2, #108]
.L739:
	ldr	r3, .L742
	ldr	r3, [r3, #72]
	bic	r2, r3, #4864
	ldr	r3, .L742
	str	r2, [r3, #72]
	ldr	r2, .L742
	ldr	r3, .L742
	str	r3, [r2, #104]
	ldr	r3, .L742
	ldr	r2, [r3, #104]
	ldr	r3, .L742
	str	r2, [r3, #100]
	ldmib	sp, {fp, sp, pc}
.L743:
	.align	2
.L742:
	.word	GSU
	.word	65535
	.word	GSU+56
	.size	_Z9fx_add_r7v, .-_Z9fx_add_r7v
	.align	2
	.type	_Z9fx_add_r8v, %function
_Z9fx_add_r8v:
	@ args = 0, pretend = 0, frame = 4
	@ frame_needed = 1, uses_anonymous_args = 0
	mov	ip, sp
	stmfd	sp!, {fp, ip, lr, pc}
	sub	fp, ip, #4
	sub	sp, sp, #4
	ldr	r3, .L748
	ldr	r3, [r3, #104]
	ldr	r3, [r3, #0]
	mov	r3, r3, asl #16
	mov	r3, r3, lsr #16
	mov	r2, r3
	ldr	r3, .L748
	ldr	r3, [r3, #32]
	mov	r3, r3, asl #16
	mov	r3, r3, lsr #16
	add	r3, r2, r3
	str	r3, [fp, #-16]
	ldr	r2, [fp, #-16]
	ldr	r3, .L748+4
	cmp	r2, r3
	movle	r2, #0
	movgt	r2, #1
	ldr	r3, .L748
	str	r2, [r3, #124]
	ldr	r3, .L748
	ldr	r3, [r3, #104]
	ldr	r2, [r3, #0]
	ldr	r3, .L748
	ldr	r3, [r3, #32]
	eor	r3, r2, r3
	mvn	r1, r3
	ldr	r3, .L748
	ldr	r2, [r3, #32]
	ldr	r3, [fp, #-16]
	eor	r3, r2, r3
	and	r3, r1, r3
	and	r2, r3, #32768
	ldr	r3, .L748
	str	r2, [r3, #128]
	ldr	r2, [fp, #-16]
	ldr	r3, .L748
	str	r2, [r3, #116]
	ldr	r2, [fp, #-16]
	ldr	r3, .L748
	str	r2, [r3, #120]
	ldr	r3, .L748
	ldr	r3, [r3, #60]
	add	r2, r3, #1
	ldr	r3, .L748
	str	r2, [r3, #60]
	ldr	r3, .L748
	ldr	r2, [r3, #100]
	ldr	r3, [fp, #-16]
	str	r3, [r2, #0]
	ldr	r3, .L748
	ldr	r2, [r3, #100]
	ldr	r3, .L748+8
	cmp	r2, r3
	bne	.L745
	ldr	r3, .L748
	ldr	r2, [r3, #468]
	ldr	r3, .L748
	ldr	r3, [r3, #56]
	mov	r3, r3, asl #16
	mov	r3, r3, lsr #16
	add	r3, r2, r3
	ldrb	r3, [r3, #0]	@ zero_extendqisi2
	ldr	r2, .L748
	strb	r3, [r2, #108]
.L745:
	ldr	r3, .L748
	ldr	r3, [r3, #72]
	bic	r2, r3, #4864
	ldr	r3, .L748
	str	r2, [r3, #72]
	ldr	r2, .L748
	ldr	r3, .L748
	str	r3, [r2, #104]
	ldr	r3, .L748
	ldr	r2, [r3, #104]
	ldr	r3, .L748
	str	r2, [r3, #100]
	ldmib	sp, {fp, sp, pc}
.L749:
	.align	2
.L748:
	.word	GSU
	.word	65535
	.word	GSU+56
	.size	_Z9fx_add_r8v, .-_Z9fx_add_r8v
	.align	2
	.type	_Z9fx_add_r9v, %function
_Z9fx_add_r9v:
	@ args = 0, pretend = 0, frame = 4
	@ frame_needed = 1, uses_anonymous_args = 0
	mov	ip, sp
	stmfd	sp!, {fp, ip, lr, pc}
	sub	fp, ip, #4
	sub	sp, sp, #4
	ldr	r3, .L754
	ldr	r3, [r3, #104]
	ldr	r3, [r3, #0]
	mov	r3, r3, asl #16
	mov	r3, r3, lsr #16
	mov	r2, r3
	ldr	r3, .L754
	ldr	r3, [r3, #36]
	mov	r3, r3, asl #16
	mov	r3, r3, lsr #16
	add	r3, r2, r3
	str	r3, [fp, #-16]
	ldr	r2, [fp, #-16]
	ldr	r3, .L754+4
	cmp	r2, r3
	movle	r2, #0
	movgt	r2, #1
	ldr	r3, .L754
	str	r2, [r3, #124]
	ldr	r3, .L754
	ldr	r3, [r3, #104]
	ldr	r2, [r3, #0]
	ldr	r3, .L754
	ldr	r3, [r3, #36]
	eor	r3, r2, r3
	mvn	r1, r3
	ldr	r3, .L754
	ldr	r2, [r3, #36]
	ldr	r3, [fp, #-16]
	eor	r3, r2, r3
	and	r3, r1, r3
	and	r2, r3, #32768
	ldr	r3, .L754
	str	r2, [r3, #128]
	ldr	r2, [fp, #-16]
	ldr	r3, .L754
	str	r2, [r3, #116]
	ldr	r2, [fp, #-16]
	ldr	r3, .L754
	str	r2, [r3, #120]
	ldr	r3, .L754
	ldr	r3, [r3, #60]
	add	r2, r3, #1
	ldr	r3, .L754
	str	r2, [r3, #60]
	ldr	r3, .L754
	ldr	r2, [r3, #100]
	ldr	r3, [fp, #-16]
	str	r3, [r2, #0]
	ldr	r3, .L754
	ldr	r2, [r3, #100]
	ldr	r3, .L754+8
	cmp	r2, r3
	bne	.L751
	ldr	r3, .L754
	ldr	r2, [r3, #468]
	ldr	r3, .L754
	ldr	r3, [r3, #56]
	mov	r3, r3, asl #16
	mov	r3, r3, lsr #16
	add	r3, r2, r3
	ldrb	r3, [r3, #0]	@ zero_extendqisi2
	ldr	r2, .L754
	strb	r3, [r2, #108]
.L751:
	ldr	r3, .L754
	ldr	r3, [r3, #72]
	bic	r2, r3, #4864
	ldr	r3, .L754
	str	r2, [r3, #72]
	ldr	r2, .L754
	ldr	r3, .L754
	str	r3, [r2, #104]
	ldr	r3, .L754
	ldr	r2, [r3, #104]
	ldr	r3, .L754
	str	r2, [r3, #100]
	ldmib	sp, {fp, sp, pc}
.L755:
	.align	2
.L754:
	.word	GSU
	.word	65535
	.word	GSU+56
	.size	_Z9fx_add_r9v, .-_Z9fx_add_r9v
	.align	2
	.type	_Z10fx_add_r10v, %function
_Z10fx_add_r10v:
	@ args = 0, pretend = 0, frame = 4
	@ frame_needed = 1, uses_anonymous_args = 0
	mov	ip, sp
	stmfd	sp!, {fp, ip, lr, pc}
	sub	fp, ip, #4
	sub	sp, sp, #4
	ldr	r3, .L760
	ldr	r3, [r3, #104]
	ldr	r3, [r3, #0]
	mov	r3, r3, asl #16
	mov	r3, r3, lsr #16
	mov	r2, r3
	ldr	r3, .L760
	ldr	r3, [r3, #40]
	mov	r3, r3, asl #16
	mov	r3, r3, lsr #16
	add	r3, r2, r3
	str	r3, [fp, #-16]
	ldr	r2, [fp, #-16]
	ldr	r3, .L760+4
	cmp	r2, r3
	movle	r2, #0
	movgt	r2, #1
	ldr	r3, .L760
	str	r2, [r3, #124]
	ldr	r3, .L760
	ldr	r3, [r3, #104]
	ldr	r2, [r3, #0]
	ldr	r3, .L760
	ldr	r3, [r3, #40]
	eor	r3, r2, r3
	mvn	r1, r3
	ldr	r3, .L760
	ldr	r2, [r3, #40]
	ldr	r3, [fp, #-16]
	eor	r3, r2, r3
	and	r3, r1, r3
	and	r2, r3, #32768
	ldr	r3, .L760
	str	r2, [r3, #128]
	ldr	r2, [fp, #-16]
	ldr	r3, .L760
	str	r2, [r3, #116]
	ldr	r2, [fp, #-16]
	ldr	r3, .L760
	str	r2, [r3, #120]
	ldr	r3, .L760
	ldr	r3, [r3, #60]
	add	r2, r3, #1
	ldr	r3, .L760
	str	r2, [r3, #60]
	ldr	r3, .L760
	ldr	r2, [r3, #100]
	ldr	r3, [fp, #-16]
	str	r3, [r2, #0]
	ldr	r3, .L760
	ldr	r2, [r3, #100]
	ldr	r3, .L760+8
	cmp	r2, r3
	bne	.L757
	ldr	r3, .L760
	ldr	r2, [r3, #468]
	ldr	r3, .L760
	ldr	r3, [r3, #56]
	mov	r3, r3, asl #16
	mov	r3, r3, lsr #16
	add	r3, r2, r3
	ldrb	r3, [r3, #0]	@ zero_extendqisi2
	ldr	r2, .L760
	strb	r3, [r2, #108]
.L757:
	ldr	r3, .L760
	ldr	r3, [r3, #72]
	bic	r2, r3, #4864
	ldr	r3, .L760
	str	r2, [r3, #72]
	ldr	r2, .L760
	ldr	r3, .L760
	str	r3, [r2, #104]
	ldr	r3, .L760
	ldr	r2, [r3, #104]
	ldr	r3, .L760
	str	r2, [r3, #100]
	ldmib	sp, {fp, sp, pc}
.L761:
	.align	2
.L760:
	.word	GSU
	.word	65535
	.word	GSU+56
	.size	_Z10fx_add_r10v, .-_Z10fx_add_r10v
	.align	2
	.type	_Z10fx_add_r11v, %function
_Z10fx_add_r11v:
	@ args = 0, pretend = 0, frame = 4
	@ frame_needed = 1, uses_anonymous_args = 0
	mov	ip, sp
	stmfd	sp!, {fp, ip, lr, pc}
	sub	fp, ip, #4
	sub	sp, sp, #4
	ldr	r3, .L766
	ldr	r3, [r3, #104]
	ldr	r3, [r3, #0]
	mov	r3, r3, asl #16
	mov	r3, r3, lsr #16
	mov	r2, r3
	ldr	r3, .L766
	ldr	r3, [r3, #44]
	mov	r3, r3, asl #16
	mov	r3, r3, lsr #16
	add	r3, r2, r3
	str	r3, [fp, #-16]
	ldr	r2, [fp, #-16]
	ldr	r3, .L766+4
	cmp	r2, r3
	movle	r2, #0
	movgt	r2, #1
	ldr	r3, .L766
	str	r2, [r3, #124]
	ldr	r3, .L766
	ldr	r3, [r3, #104]
	ldr	r2, [r3, #0]
	ldr	r3, .L766
	ldr	r3, [r3, #44]
	eor	r3, r2, r3
	mvn	r1, r3
	ldr	r3, .L766
	ldr	r2, [r3, #44]
	ldr	r3, [fp, #-16]
	eor	r3, r2, r3
	and	r3, r1, r3
	and	r2, r3, #32768
	ldr	r3, .L766
	str	r2, [r3, #128]
	ldr	r2, [fp, #-16]
	ldr	r3, .L766
	str	r2, [r3, #116]
	ldr	r2, [fp, #-16]
	ldr	r3, .L766
	str	r2, [r3, #120]
	ldr	r3, .L766
	ldr	r3, [r3, #60]
	add	r2, r3, #1
	ldr	r3, .L766
	str	r2, [r3, #60]
	ldr	r3, .L766
	ldr	r2, [r3, #100]
	ldr	r3, [fp, #-16]
	str	r3, [r2, #0]
	ldr	r3, .L766
	ldr	r2, [r3, #100]
	ldr	r3, .L766+8
	cmp	r2, r3
	bne	.L763
	ldr	r3, .L766
	ldr	r2, [r3, #468]
	ldr	r3, .L766
	ldr	r3, [r3, #56]
	mov	r3, r3, asl #16
	mov	r3, r3, lsr #16
	add	r3, r2, r3
	ldrb	r3, [r3, #0]	@ zero_extendqisi2
	ldr	r2, .L766
	strb	r3, [r2, #108]
.L763:
	ldr	r3, .L766
	ldr	r3, [r3, #72]
	bic	r2, r3, #4864
	ldr	r3, .L766
	str	r2, [r3, #72]
	ldr	r2, .L766
	ldr	r3, .L766
	str	r3, [r2, #104]
	ldr	r3, .L766
	ldr	r2, [r3, #104]
	ldr	r3, .L766
	str	r2, [r3, #100]
	ldmib	sp, {fp, sp, pc}
.L767:
	.align	2
.L766:
	.word	GSU
	.word	65535
	.word	GSU+56
	.size	_Z10fx_add_r11v, .-_Z10fx_add_r11v
	.align	2
	.type	_Z10fx_add_r12v, %function
_Z10fx_add_r12v:
	@ args = 0, pretend = 0, frame = 4
	@ frame_needed = 1, uses_anonymous_args = 0
	mov	ip, sp
	stmfd	sp!, {fp, ip, lr, pc}
	sub	fp, ip, #4
	sub	sp, sp, #4
	ldr	r3, .L772
	ldr	r3, [r3, #104]
	ldr	r3, [r3, #0]
	mov	r3, r3, asl #16
	mov	r3, r3, lsr #16
	mov	r2, r3
	ldr	r3, .L772
	ldr	r3, [r3, #48]
	mov	r3, r3, asl #16
	mov	r3, r3, lsr #16
	add	r3, r2, r3
	str	r3, [fp, #-16]
	ldr	r2, [fp, #-16]
	ldr	r3, .L772+4
	cmp	r2, r3
	movle	r2, #0
	movgt	r2, #1
	ldr	r3, .L772
	str	r2, [r3, #124]
	ldr	r3, .L772
	ldr	r3, [r3, #104]
	ldr	r2, [r3, #0]
	ldr	r3, .L772
	ldr	r3, [r3, #48]
	eor	r3, r2, r3
	mvn	r1, r3
	ldr	r3, .L772
	ldr	r2, [r3, #48]
	ldr	r3, [fp, #-16]
	eor	r3, r2, r3
	and	r3, r1, r3
	and	r2, r3, #32768
	ldr	r3, .L772
	str	r2, [r3, #128]
	ldr	r2, [fp, #-16]
	ldr	r3, .L772
	str	r2, [r3, #116]
	ldr	r2, [fp, #-16]
	ldr	r3, .L772
	str	r2, [r3, #120]
	ldr	r3, .L772
	ldr	r3, [r3, #60]
	add	r2, r3, #1
	ldr	r3, .L772
	str	r2, [r3, #60]
	ldr	r3, .L772
	ldr	r2, [r3, #100]
	ldr	r3, [fp, #-16]
	str	r3, [r2, #0]
	ldr	r3, .L772
	ldr	r2, [r3, #100]
	ldr	r3, .L772+8
	cmp	r2, r3
	bne	.L769
	ldr	r3, .L772
	ldr	r2, [r3, #468]
	ldr	r3, .L772
	ldr	r3, [r3, #56]
	mov	r3, r3, asl #16
	mov	r3, r3, lsr #16
	add	r3, r2, r3
	ldrb	r3, [r3, #0]	@ zero_extendqisi2
	ldr	r2, .L772
	strb	r3, [r2, #108]
.L769:
	ldr	r3, .L772
	ldr	r3, [r3, #72]
	bic	r2, r3, #4864
	ldr	r3, .L772
	str	r2, [r3, #72]
	ldr	r2, .L772
	ldr	r3, .L772
	str	r3, [r2, #104]
	ldr	r3, .L772
	ldr	r2, [r3, #104]
	ldr	r3, .L772
	str	r2, [r3, #100]
	ldmib	sp, {fp, sp, pc}
.L773:
	.align	2
.L772:
	.word	GSU
	.word	65535
	.word	GSU+56
	.size	_Z10fx_add_r12v, .-_Z10fx_add_r12v
	.align	2
	.type	_Z10fx_add_r13v, %function
_Z10fx_add_r13v:
	@ args = 0, pretend = 0, frame = 4
	@ frame_needed = 1, uses_anonymous_args = 0
	mov	ip, sp
	stmfd	sp!, {fp, ip, lr, pc}
	sub	fp, ip, #4
	sub	sp, sp, #4
	ldr	r3, .L778
	ldr	r3, [r3, #104]
	ldr	r3, [r3, #0]
	mov	r3, r3, asl #16
	mov	r3, r3, lsr #16
	mov	r2, r3
	ldr	r3, .L778
	ldr	r3, [r3, #52]
	mov	r3, r3, asl #16
	mov	r3, r3, lsr #16
	add	r3, r2, r3
	str	r3, [fp, #-16]
	ldr	r2, [fp, #-16]
	ldr	r3, .L778+4
	cmp	r2, r3
	movle	r2, #0
	movgt	r2, #1
	ldr	r3, .L778
	str	r2, [r3, #124]
	ldr	r3, .L778
	ldr	r3, [r3, #104]
	ldr	r2, [r3, #0]
	ldr	r3, .L778
	ldr	r3, [r3, #52]
	eor	r3, r2, r3
	mvn	r1, r3
	ldr	r3, .L778
	ldr	r2, [r3, #52]
	ldr	r3, [fp, #-16]
	eor	r3, r2, r3
	and	r3, r1, r3
	and	r2, r3, #32768
	ldr	r3, .L778
	str	r2, [r3, #128]
	ldr	r2, [fp, #-16]
	ldr	r3, .L778
	str	r2, [r3, #116]
	ldr	r2, [fp, #-16]
	ldr	r3, .L778
	str	r2, [r3, #120]
	ldr	r3, .L778
	ldr	r3, [r3, #60]
	add	r2, r3, #1
	ldr	r3, .L778
	str	r2, [r3, #60]
	ldr	r3, .L778
	ldr	r2, [r3, #100]
	ldr	r3, [fp, #-16]
	str	r3, [r2, #0]
	ldr	r3, .L778
	ldr	r2, [r3, #100]
	ldr	r3, .L778+8
	cmp	r2, r3
	bne	.L775
	ldr	r3, .L778
	ldr	r2, [r3, #468]
	ldr	r3, .L778
	ldr	r3, [r3, #56]
	mov	r3, r3, asl #16
	mov	r3, r3, lsr #16
	add	r3, r2, r3
	ldrb	r3, [r3, #0]	@ zero_extendqisi2
	ldr	r2, .L778
	strb	r3, [r2, #108]
.L775:
	ldr	r3, .L778
	ldr	r3, [r3, #72]
	bic	r2, r3, #4864
	ldr	r3, .L778
	str	r2, [r3, #72]
	ldr	r2, .L778
	ldr	r3, .L778
	str	r3, [r2, #104]
	ldr	r3, .L778
	ldr	r2, [r3, #104]
	ldr	r3, .L778
	str	r2, [r3, #100]
	ldmib	sp, {fp, sp, pc}
.L779:
	.align	2
.L778:
	.word	GSU
	.word	65535
	.word	GSU+56
	.size	_Z10fx_add_r13v, .-_Z10fx_add_r13v
	.align	2
	.type	_Z10fx_add_r14v, %function
_Z10fx_add_r14v:
	@ args = 0, pretend = 0, frame = 4
	@ frame_needed = 1, uses_anonymous_args = 0
	mov	ip, sp
	stmfd	sp!, {fp, ip, lr, pc}
	sub	fp, ip, #4
	sub	sp, sp, #4
	ldr	r3, .L784
	ldr	r3, [r3, #104]
	ldr	r3, [r3, #0]
	mov	r3, r3, asl #16
	mov	r3, r3, lsr #16
	mov	r2, r3
	ldr	r3, .L784
	ldr	r3, [r3, #56]
	mov	r3, r3, asl #16
	mov	r3, r3, lsr #16
	add	r3, r2, r3
	str	r3, [fp, #-16]
	ldr	r2, [fp, #-16]
	ldr	r3, .L784+4
	cmp	r2, r3
	movle	r2, #0
	movgt	r2, #1
	ldr	r3, .L784
	str	r2, [r3, #124]
	ldr	r3, .L784
	ldr	r3, [r3, #104]
	ldr	r2, [r3, #0]
	ldr	r3, .L784
	ldr	r3, [r3, #56]
	eor	r3, r2, r3
	mvn	r1, r3
	ldr	r3, .L784
	ldr	r2, [r3, #56]
	ldr	r3, [fp, #-16]
	eor	r3, r2, r3
	and	r3, r1, r3
	and	r2, r3, #32768
	ldr	r3, .L784
	str	r2, [r3, #128]
	ldr	r2, [fp, #-16]
	ldr	r3, .L784
	str	r2, [r3, #116]
	ldr	r2, [fp, #-16]
	ldr	r3, .L784
	str	r2, [r3, #120]
	ldr	r3, .L784
	ldr	r3, [r3, #60]
	add	r2, r3, #1
	ldr	r3, .L784
	str	r2, [r3, #60]
	ldr	r3, .L784
	ldr	r2, [r3, #100]
	ldr	r3, [fp, #-16]
	str	r3, [r2, #0]
	ldr	r3, .L784
	ldr	r2, [r3, #100]
	ldr	r3, .L784+8
	cmp	r2, r3
	bne	.L781
	ldr	r3, .L784
	ldr	r2, [r3, #468]
	ldr	r3, .L784
	ldr	r3, [r3, #56]
	mov	r3, r3, asl #16
	mov	r3, r3, lsr #16
	add	r3, r2, r3
	ldrb	r3, [r3, #0]	@ zero_extendqisi2
	ldr	r2, .L784
	strb	r3, [r2, #108]
.L781:
	ldr	r3, .L784
	ldr	r3, [r3, #72]
	bic	r2, r3, #4864
	ldr	r3, .L784
	str	r2, [r3, #72]
	ldr	r2, .L784
	ldr	r3, .L784
	str	r3, [r2, #104]
	ldr	r3, .L784
	ldr	r2, [r3, #104]
	ldr	r3, .L784
	str	r2, [r3, #100]
	ldmib	sp, {fp, sp, pc}
.L785:
	.align	2
.L784:
	.word	GSU
	.word	65535
	.word	GSU+56
	.size	_Z10fx_add_r14v, .-_Z10fx_add_r14v
	.align	2
	.type	_Z10fx_add_r15v, %function
_Z10fx_add_r15v:
	@ args = 0, pretend = 0, frame = 4
	@ frame_needed = 1, uses_anonymous_args = 0
	mov	ip, sp
	stmfd	sp!, {fp, ip, lr, pc}
	sub	fp, ip, #4
	sub	sp, sp, #4
	ldr	r3, .L790
	ldr	r3, [r3, #104]
	ldr	r3, [r3, #0]
	mov	r3, r3, asl #16
	mov	r3, r3, lsr #16
	mov	r2, r3
	ldr	r3, .L790
	ldr	r3, [r3, #60]
	mov	r3, r3, asl #16
	mov	r3, r3, lsr #16
	add	r3, r2, r3
	str	r3, [fp, #-16]
	ldr	r2, [fp, #-16]
	ldr	r3, .L790+4
	cmp	r2, r3
	movle	r2, #0
	movgt	r2, #1
	ldr	r3, .L790
	str	r2, [r3, #124]
	ldr	r3, .L790
	ldr	r3, [r3, #104]
	ldr	r2, [r3, #0]
	ldr	r3, .L790
	ldr	r3, [r3, #60]
	eor	r3, r2, r3
	mvn	r1, r3
	ldr	r3, .L790
	ldr	r2, [r3, #60]
	ldr	r3, [fp, #-16]
	eor	r3, r2, r3
	and	r3, r1, r3
	and	r2, r3, #32768
	ldr	r3, .L790
	str	r2, [r3, #128]
	ldr	r2, [fp, #-16]
	ldr	r3, .L790
	str	r2, [r3, #116]
	ldr	r2, [fp, #-16]
	ldr	r3, .L790
	str	r2, [r3, #120]
	ldr	r3, .L790
	ldr	r3, [r3, #60]
	add	r2, r3, #1
	ldr	r3, .L790
	str	r2, [r3, #60]
	ldr	r3, .L790
	ldr	r2, [r3, #100]
	ldr	r3, [fp, #-16]
	str	r3, [r2, #0]
	ldr	r3, .L790
	ldr	r2, [r3, #100]
	ldr	r3, .L790+8
	cmp	r2, r3
	bne	.L787
	ldr	r3, .L790
	ldr	r2, [r3, #468]
	ldr	r3, .L790
	ldr	r3, [r3, #56]
	mov	r3, r3, asl #16
	mov	r3, r3, lsr #16
	add	r3, r2, r3
	ldrb	r3, [r3, #0]	@ zero_extendqisi2
	ldr	r2, .L790
	strb	r3, [r2, #108]
.L787:
	ldr	r3, .L790
	ldr	r3, [r3, #72]
	bic	r2, r3, #4864
	ldr	r3, .L790
	str	r2, [r3, #72]
	ldr	r2, .L790
	ldr	r3, .L790
	str	r3, [r2, #104]
	ldr	r3, .L790
	ldr	r2, [r3, #104]
	ldr	r3, .L790
	str	r2, [r3, #100]
	ldmib	sp, {fp, sp, pc}
.L791:
	.align	2
.L790:
	.word	GSU
	.word	65535
	.word	GSU+56
	.size	_Z10fx_add_r15v, .-_Z10fx_add_r15v
	.align	2
	.type	_Z9fx_adc_r0v, %function
_Z9fx_adc_r0v:
	@ args = 0, pretend = 0, frame = 4
	@ frame_needed = 1, uses_anonymous_args = 0
	mov	ip, sp
	stmfd	sp!, {fp, ip, lr, pc}
	sub	fp, ip, #4
	sub	sp, sp, #4
	ldr	r3, .L796
	ldr	r3, [r3, #104]
	ldr	r3, [r3, #0]
	mov	r3, r3, asl #16
	mov	r3, r3, lsr #16
	mov	r2, r3
	ldr	r3, .L796
	ldr	r3, [r3, #0]
	mov	r3, r3, asl #16
	mov	r3, r3, lsr #16
	add	r2, r2, r3
	ldr	r3, .L796
	ldr	r3, [r3, #124]
	mov	r3, r3, asl #16
	mov	r3, r3, lsr #16
	mov	r3, r3, asl #16
	mov	r3, r3, asr #16
	add	r3, r2, r3
	str	r3, [fp, #-16]
	ldr	r2, [fp, #-16]
	ldr	r3, .L796+4
	cmp	r2, r3
	movle	r2, #0
	movgt	r2, #1
	ldr	r3, .L796
	str	r2, [r3, #124]
	ldr	r3, .L796
	ldr	r3, [r3, #104]
	ldr	r2, [r3, #0]
	ldr	r3, .L796
	ldr	r3, [r3, #0]
	eor	r3, r2, r3
	mvn	r1, r3
	ldr	r3, .L796
	ldr	r2, [r3, #0]
	ldr	r3, [fp, #-16]
	eor	r3, r2, r3
	and	r3, r1, r3
	and	r2, r3, #32768
	ldr	r3, .L796
	str	r2, [r3, #128]
	ldr	r2, [fp, #-16]
	ldr	r3, .L796
	str	r2, [r3, #116]
	ldr	r2, [fp, #-16]
	ldr	r3, .L796
	str	r2, [r3, #120]
	ldr	r3, .L796
	ldr	r3, [r3, #60]
	add	r2, r3, #1
	ldr	r3, .L796
	str	r2, [r3, #60]
	ldr	r3, .L796
	ldr	r2, [r3, #100]
	ldr	r3, [fp, #-16]
	str	r3, [r2, #0]
	ldr	r3, .L796
	ldr	r2, [r3, #100]
	ldr	r3, .L796+8
	cmp	r2, r3
	bne	.L793
	ldr	r3, .L796
	ldr	r2, [r3, #468]
	ldr	r3, .L796
	ldr	r3, [r3, #56]
	mov	r3, r3, asl #16
	mov	r3, r3, lsr #16
	add	r3, r2, r3
	ldrb	r3, [r3, #0]	@ zero_extendqisi2
	ldr	r2, .L796
	strb	r3, [r2, #108]
.L793:
	ldr	r3, .L796
	ldr	r3, [r3, #72]
	bic	r2, r3, #4864
	ldr	r3, .L796
	str	r2, [r3, #72]
	ldr	r2, .L796
	ldr	r3, .L796
	str	r3, [r2, #104]
	ldr	r3, .L796
	ldr	r2, [r3, #104]
	ldr	r3, .L796
	str	r2, [r3, #100]
	ldmib	sp, {fp, sp, pc}
.L797:
	.align	2
.L796:
	.word	GSU
	.word	65535
	.word	GSU+56
	.size	_Z9fx_adc_r0v, .-_Z9fx_adc_r0v
	.align	2
	.type	_Z9fx_adc_r1v, %function
_Z9fx_adc_r1v:
	@ args = 0, pretend = 0, frame = 4
	@ frame_needed = 1, uses_anonymous_args = 0
	mov	ip, sp
	stmfd	sp!, {fp, ip, lr, pc}
	sub	fp, ip, #4
	sub	sp, sp, #4
	ldr	r3, .L802
	ldr	r3, [r3, #104]
	ldr	r3, [r3, #0]
	mov	r3, r3, asl #16
	mov	r3, r3, lsr #16
	mov	r2, r3
	ldr	r3, .L802
	ldr	r3, [r3, #4]
	mov	r3, r3, asl #16
	mov	r3, r3, lsr #16
	add	r2, r2, r3
	ldr	r3, .L802
	ldr	r3, [r3, #124]
	mov	r3, r3, asl #16
	mov	r3, r3, lsr #16
	mov	r3, r3, asl #16
	mov	r3, r3, asr #16
	add	r3, r2, r3
	str	r3, [fp, #-16]
	ldr	r2, [fp, #-16]
	ldr	r3, .L802+4
	cmp	r2, r3
	movle	r2, #0
	movgt	r2, #1
	ldr	r3, .L802
	str	r2, [r3, #124]
	ldr	r3, .L802
	ldr	r3, [r3, #104]
	ldr	r2, [r3, #0]
	ldr	r3, .L802
	ldr	r3, [r3, #4]
	eor	r3, r2, r3
	mvn	r1, r3
	ldr	r3, .L802
	ldr	r2, [r3, #4]
	ldr	r3, [fp, #-16]
	eor	r3, r2, r3
	and	r3, r1, r3
	and	r2, r3, #32768
	ldr	r3, .L802
	str	r2, [r3, #128]
	ldr	r2, [fp, #-16]
	ldr	r3, .L802
	str	r2, [r3, #116]
	ldr	r2, [fp, #-16]
	ldr	r3, .L802
	str	r2, [r3, #120]
	ldr	r3, .L802
	ldr	r3, [r3, #60]
	add	r2, r3, #1
	ldr	r3, .L802
	str	r2, [r3, #60]
	ldr	r3, .L802
	ldr	r2, [r3, #100]
	ldr	r3, [fp, #-16]
	str	r3, [r2, #0]
	ldr	r3, .L802
	ldr	r2, [r3, #100]
	ldr	r3, .L802+8
	cmp	r2, r3
	bne	.L799
	ldr	r3, .L802
	ldr	r2, [r3, #468]
	ldr	r3, .L802
	ldr	r3, [r3, #56]
	mov	r3, r3, asl #16
	mov	r3, r3, lsr #16
	add	r3, r2, r3
	ldrb	r3, [r3, #0]	@ zero_extendqisi2
	ldr	r2, .L802
	strb	r3, [r2, #108]
.L799:
	ldr	r3, .L802
	ldr	r3, [r3, #72]
	bic	r2, r3, #4864
	ldr	r3, .L802
	str	r2, [r3, #72]
	ldr	r2, .L802
	ldr	r3, .L802
	str	r3, [r2, #104]
	ldr	r3, .L802
	ldr	r2, [r3, #104]
	ldr	r3, .L802
	str	r2, [r3, #100]
	ldmib	sp, {fp, sp, pc}
.L803:
	.align	2
.L802:
	.word	GSU
	.word	65535
	.word	GSU+56
	.size	_Z9fx_adc_r1v, .-_Z9fx_adc_r1v
	.align	2
	.type	_Z9fx_adc_r2v, %function
_Z9fx_adc_r2v:
	@ args = 0, pretend = 0, frame = 4
	@ frame_needed = 1, uses_anonymous_args = 0
	mov	ip, sp
	stmfd	sp!, {fp, ip, lr, pc}
	sub	fp, ip, #4
	sub	sp, sp, #4
	ldr	r3, .L808
	ldr	r3, [r3, #104]
	ldr	r3, [r3, #0]
	mov	r3, r3, asl #16
	mov	r3, r3, lsr #16
	mov	r2, r3
	ldr	r3, .L808
	ldr	r3, [r3, #8]
	mov	r3, r3, asl #16
	mov	r3, r3, lsr #16
	add	r2, r2, r3
	ldr	r3, .L808
	ldr	r3, [r3, #124]
	mov	r3, r3, asl #16
	mov	r3, r3, lsr #16
	mov	r3, r3, asl #16
	mov	r3, r3, asr #16
	add	r3, r2, r3
	str	r3, [fp, #-16]
	ldr	r2, [fp, #-16]
	ldr	r3, .L808+4
	cmp	r2, r3
	movle	r2, #0
	movgt	r2, #1
	ldr	r3, .L808
	str	r2, [r3, #124]
	ldr	r3, .L808
	ldr	r3, [r3, #104]
	ldr	r2, [r3, #0]
	ldr	r3, .L808
	ldr	r3, [r3, #8]
	eor	r3, r2, r3
	mvn	r1, r3
	ldr	r3, .L808
	ldr	r2, [r3, #8]
	ldr	r3, [fp, #-16]
	eor	r3, r2, r3
	and	r3, r1, r3
	and	r2, r3, #32768
	ldr	r3, .L808
	str	r2, [r3, #128]
	ldr	r2, [fp, #-16]
	ldr	r3, .L808
	str	r2, [r3, #116]
	ldr	r2, [fp, #-16]
	ldr	r3, .L808
	str	r2, [r3, #120]
	ldr	r3, .L808
	ldr	r3, [r3, #60]
	add	r2, r3, #1
	ldr	r3, .L808
	str	r2, [r3, #60]
	ldr	r3, .L808
	ldr	r2, [r3, #100]
	ldr	r3, [fp, #-16]
	str	r3, [r2, #0]
	ldr	r3, .L808
	ldr	r2, [r3, #100]
	ldr	r3, .L808+8
	cmp	r2, r3
	bne	.L805
	ldr	r3, .L808
	ldr	r2, [r3, #468]
	ldr	r3, .L808
	ldr	r3, [r3, #56]
	mov	r3, r3, asl #16
	mov	r3, r3, lsr #16
	add	r3, r2, r3
	ldrb	r3, [r3, #0]	@ zero_extendqisi2
	ldr	r2, .L808
	strb	r3, [r2, #108]
.L805:
	ldr	r3, .L808
	ldr	r3, [r3, #72]
	bic	r2, r3, #4864
	ldr	r3, .L808
	str	r2, [r3, #72]
	ldr	r2, .L808
	ldr	r3, .L808
	str	r3, [r2, #104]
	ldr	r3, .L808
	ldr	r2, [r3, #104]
	ldr	r3, .L808
	str	r2, [r3, #100]
	ldmib	sp, {fp, sp, pc}
.L809:
	.align	2
.L808:
	.word	GSU
	.word	65535
	.word	GSU+56
	.size	_Z9fx_adc_r2v, .-_Z9fx_adc_r2v
	.align	2
	.type	_Z9fx_adc_r3v, %function
_Z9fx_adc_r3v:
	@ args = 0, pretend = 0, frame = 4
	@ frame_needed = 1, uses_anonymous_args = 0
	mov	ip, sp
	stmfd	sp!, {fp, ip, lr, pc}
	sub	fp, ip, #4
	sub	sp, sp, #4
	ldr	r3, .L814
	ldr	r3, [r3, #104]
	ldr	r3, [r3, #0]
	mov	r3, r3, asl #16
	mov	r3, r3, lsr #16
	mov	r2, r3
	ldr	r3, .L814
	ldr	r3, [r3, #12]
	mov	r3, r3, asl #16
	mov	r3, r3, lsr #16
	add	r2, r2, r3
	ldr	r3, .L814
	ldr	r3, [r3, #124]
	mov	r3, r3, asl #16
	mov	r3, r3, lsr #16
	mov	r3, r3, asl #16
	mov	r3, r3, asr #16
	add	r3, r2, r3
	str	r3, [fp, #-16]
	ldr	r2, [fp, #-16]
	ldr	r3, .L814+4
	cmp	r2, r3
	movle	r2, #0
	movgt	r2, #1
	ldr	r3, .L814
	str	r2, [r3, #124]
	ldr	r3, .L814
	ldr	r3, [r3, #104]
	ldr	r2, [r3, #0]
	ldr	r3, .L814
	ldr	r3, [r3, #12]
	eor	r3, r2, r3
	mvn	r1, r3
	ldr	r3, .L814
	ldr	r2, [r3, #12]
	ldr	r3, [fp, #-16]
	eor	r3, r2, r3
	and	r3, r1, r3
	and	r2, r3, #32768
	ldr	r3, .L814
	str	r2, [r3, #128]
	ldr	r2, [fp, #-16]
	ldr	r3, .L814
	str	r2, [r3, #116]
	ldr	r2, [fp, #-16]
	ldr	r3, .L814
	str	r2, [r3, #120]
	ldr	r3, .L814
	ldr	r3, [r3, #60]
	add	r2, r3, #1
	ldr	r3, .L814
	str	r2, [r3, #60]
	ldr	r3, .L814
	ldr	r2, [r3, #100]
	ldr	r3, [fp, #-16]
	str	r3, [r2, #0]
	ldr	r3, .L814
	ldr	r2, [r3, #100]
	ldr	r3, .L814+8
	cmp	r2, r3
	bne	.L811
	ldr	r3, .L814
	ldr	r2, [r3, #468]
	ldr	r3, .L814
	ldr	r3, [r3, #56]
	mov	r3, r3, asl #16
	mov	r3, r3, lsr #16
	add	r3, r2, r3
	ldrb	r3, [r3, #0]	@ zero_extendqisi2
	ldr	r2, .L814
	strb	r3, [r2, #108]
.L811:
	ldr	r3, .L814
	ldr	r3, [r3, #72]
	bic	r2, r3, #4864
	ldr	r3, .L814
	str	r2, [r3, #72]
	ldr	r2, .L814
	ldr	r3, .L814
	str	r3, [r2, #104]
	ldr	r3, .L814
	ldr	r2, [r3, #104]
	ldr	r3, .L814
	str	r2, [r3, #100]
	ldmib	sp, {fp, sp, pc}
.L815:
	.align	2
.L814:
	.word	GSU
	.word	65535
	.word	GSU+56
	.size	_Z9fx_adc_r3v, .-_Z9fx_adc_r3v
	.align	2
	.type	_Z9fx_adc_r4v, %function
_Z9fx_adc_r4v:
	@ args = 0, pretend = 0, frame = 4
	@ frame_needed = 1, uses_anonymous_args = 0
	mov	ip, sp
	stmfd	sp!, {fp, ip, lr, pc}
	sub	fp, ip, #4
	sub	sp, sp, #4
	ldr	r3, .L820
	ldr	r3, [r3, #104]
	ldr	r3, [r3, #0]
	mov	r3, r3, asl #16
	mov	r3, r3, lsr #16
	mov	r2, r3
	ldr	r3, .L820
	ldr	r3, [r3, #16]
	mov	r3, r3, asl #16
	mov	r3, r3, lsr #16
	add	r2, r2, r3
	ldr	r3, .L820
	ldr	r3, [r3, #124]
	mov	r3, r3, asl #16
	mov	r3, r3, lsr #16
	mov	r3, r3, asl #16
	mov	r3, r3, asr #16
	add	r3, r2, r3
	str	r3, [fp, #-16]
	ldr	r2, [fp, #-16]
	ldr	r3, .L820+4
	cmp	r2, r3
	movle	r2, #0
	movgt	r2, #1
	ldr	r3, .L820
	str	r2, [r3, #124]
	ldr	r3, .L820
	ldr	r3, [r3, #104]
	ldr	r2, [r3, #0]
	ldr	r3, .L820
	ldr	r3, [r3, #16]
	eor	r3, r2, r3
	mvn	r1, r3
	ldr	r3, .L820
	ldr	r2, [r3, #16]
	ldr	r3, [fp, #-16]
	eor	r3, r2, r3
	and	r3, r1, r3
	and	r2, r3, #32768
	ldr	r3, .L820
	str	r2, [r3, #128]
	ldr	r2, [fp, #-16]
	ldr	r3, .L820
	str	r2, [r3, #116]
	ldr	r2, [fp, #-16]
	ldr	r3, .L820
	str	r2, [r3, #120]
	ldr	r3, .L820
	ldr	r3, [r3, #60]
	add	r2, r3, #1
	ldr	r3, .L820
	str	r2, [r3, #60]
	ldr	r3, .L820
	ldr	r2, [r3, #100]
	ldr	r3, [fp, #-16]
	str	r3, [r2, #0]
	ldr	r3, .L820
	ldr	r2, [r3, #100]
	ldr	r3, .L820+8
	cmp	r2, r3
	bne	.L817
	ldr	r3, .L820
	ldr	r2, [r3, #468]
	ldr	r3, .L820
	ldr	r3, [r3, #56]
	mov	r3, r3, asl #16
	mov	r3, r3, lsr #16
	add	r3, r2, r3
	ldrb	r3, [r3, #0]	@ zero_extendqisi2
	ldr	r2, .L820
	strb	r3, [r2, #108]
.L817:
	ldr	r3, .L820
	ldr	r3, [r3, #72]
	bic	r2, r3, #4864
	ldr	r3, .L820
	str	r2, [r3, #72]
	ldr	r2, .L820
	ldr	r3, .L820
	str	r3, [r2, #104]
	ldr	r3, .L820
	ldr	r2, [r3, #104]
	ldr	r3, .L820
	str	r2, [r3, #100]
	ldmib	sp, {fp, sp, pc}
.L821:
	.align	2
.L820:
	.word	GSU
	.word	65535
	.word	GSU+56
	.size	_Z9fx_adc_r4v, .-_Z9fx_adc_r4v
	.align	2
	.type	_Z9fx_adc_r5v, %function
_Z9fx_adc_r5v:
	@ args = 0, pretend = 0, frame = 4
	@ frame_needed = 1, uses_anonymous_args = 0
	mov	ip, sp
	stmfd	sp!, {fp, ip, lr, pc}
	sub	fp, ip, #4
	sub	sp, sp, #4
	ldr	r3, .L826
	ldr	r3, [r3, #104]
	ldr	r3, [r3, #0]
	mov	r3, r3, asl #16
	mov	r3, r3, lsr #16
	mov	r2, r3
	ldr	r3, .L826
	ldr	r3, [r3, #20]
	mov	r3, r3, asl #16
	mov	r3, r3, lsr #16
	add	r2, r2, r3
	ldr	r3, .L826
	ldr	r3, [r3, #124]
	mov	r3, r3, asl #16
	mov	r3, r3, lsr #16
	mov	r3, r3, asl #16
	mov	r3, r3, asr #16
	add	r3, r2, r3
	str	r3, [fp, #-16]
	ldr	r2, [fp, #-16]
	ldr	r3, .L826+4
	cmp	r2, r3
	movle	r2, #0
	movgt	r2, #1
	ldr	r3, .L826
	str	r2, [r3, #124]
	ldr	r3, .L826
	ldr	r3, [r3, #104]
	ldr	r2, [r3, #0]
	ldr	r3, .L826
	ldr	r3, [r3, #20]
	eor	r3, r2, r3
	mvn	r1, r3
	ldr	r3, .L826
	ldr	r2, [r3, #20]
	ldr	r3, [fp, #-16]
	eor	r3, r2, r3
	and	r3, r1, r3
	and	r2, r3, #32768
	ldr	r3, .L826
	str	r2, [r3, #128]
	ldr	r2, [fp, #-16]
	ldr	r3, .L826
	str	r2, [r3, #116]
	ldr	r2, [fp, #-16]
	ldr	r3, .L826
	str	r2, [r3, #120]
	ldr	r3, .L826
	ldr	r3, [r3, #60]
	add	r2, r3, #1
	ldr	r3, .L826
	str	r2, [r3, #60]
	ldr	r3, .L826
	ldr	r2, [r3, #100]
	ldr	r3, [fp, #-16]
	str	r3, [r2, #0]
	ldr	r3, .L826
	ldr	r2, [r3, #100]
	ldr	r3, .L826+8
	cmp	r2, r3
	bne	.L823
	ldr	r3, .L826
	ldr	r2, [r3, #468]
	ldr	r3, .L826
	ldr	r3, [r3, #56]
	mov	r3, r3, asl #16
	mov	r3, r3, lsr #16
	add	r3, r2, r3
	ldrb	r3, [r3, #0]	@ zero_extendqisi2
	ldr	r2, .L826
	strb	r3, [r2, #108]
.L823:
	ldr	r3, .L826
	ldr	r3, [r3, #72]
	bic	r2, r3, #4864
	ldr	r3, .L826
	str	r2, [r3, #72]
	ldr	r2, .L826
	ldr	r3, .L826
	str	r3, [r2, #104]
	ldr	r3, .L826
	ldr	r2, [r3, #104]
	ldr	r3, .L826
	str	r2, [r3, #100]
	ldmib	sp, {fp, sp, pc}
.L827:
	.align	2
.L826:
	.word	GSU
	.word	65535
	.word	GSU+56
	.size	_Z9fx_adc_r5v, .-_Z9fx_adc_r5v
	.align	2
	.type	_Z9fx_adc_r6v, %function
_Z9fx_adc_r6v:
	@ args = 0, pretend = 0, frame = 4
	@ frame_needed = 1, uses_anonymous_args = 0
	mov	ip, sp
	stmfd	sp!, {fp, ip, lr, pc}
	sub	fp, ip, #4
	sub	sp, sp, #4
	ldr	r3, .L832
	ldr	r3, [r3, #104]
	ldr	r3, [r3, #0]
	mov	r3, r3, asl #16
	mov	r3, r3, lsr #16
	mov	r2, r3
	ldr	r3, .L832
	ldr	r3, [r3, #24]
	mov	r3, r3, asl #16
	mov	r3, r3, lsr #16
	add	r2, r2, r3
	ldr	r3, .L832
	ldr	r3, [r3, #124]
	mov	r3, r3, asl #16
	mov	r3, r3, lsr #16
	mov	r3, r3, asl #16
	mov	r3, r3, asr #16
	add	r3, r2, r3
	str	r3, [fp, #-16]
	ldr	r2, [fp, #-16]
	ldr	r3, .L832+4
	cmp	r2, r3
	movle	r2, #0
	movgt	r2, #1
	ldr	r3, .L832
	str	r2, [r3, #124]
	ldr	r3, .L832
	ldr	r3, [r3, #104]
	ldr	r2, [r3, #0]
	ldr	r3, .L832
	ldr	r3, [r3, #24]
	eor	r3, r2, r3
	mvn	r1, r3
	ldr	r3, .L832
	ldr	r2, [r3, #24]
	ldr	r3, [fp, #-16]
	eor	r3, r2, r3
	and	r3, r1, r3
	and	r2, r3, #32768
	ldr	r3, .L832
	str	r2, [r3, #128]
	ldr	r2, [fp, #-16]
	ldr	r3, .L832
	str	r2, [r3, #116]
	ldr	r2, [fp, #-16]
	ldr	r3, .L832
	str	r2, [r3, #120]
	ldr	r3, .L832
	ldr	r3, [r3, #60]
	add	r2, r3, #1
	ldr	r3, .L832
	str	r2, [r3, #60]
	ldr	r3, .L832
	ldr	r2, [r3, #100]
	ldr	r3, [fp, #-16]
	str	r3, [r2, #0]
	ldr	r3, .L832
	ldr	r2, [r3, #100]
	ldr	r3, .L832+8
	cmp	r2, r3
	bne	.L829
	ldr	r3, .L832
	ldr	r2, [r3, #468]
	ldr	r3, .L832
	ldr	r3, [r3, #56]
	mov	r3, r3, asl #16
	mov	r3, r3, lsr #16
	add	r3, r2, r3
	ldrb	r3, [r3, #0]	@ zero_extendqisi2
	ldr	r2, .L832
	strb	r3, [r2, #108]
.L829:
	ldr	r3, .L832
	ldr	r3, [r3, #72]
	bic	r2, r3, #4864
	ldr	r3, .L832
	str	r2, [r3, #72]
	ldr	r2, .L832
	ldr	r3, .L832
	str	r3, [r2, #104]
	ldr	r3, .L832
	ldr	r2, [r3, #104]
	ldr	r3, .L832
	str	r2, [r3, #100]
	ldmib	sp, {fp, sp, pc}
.L833:
	.align	2
.L832:
	.word	GSU
	.word	65535
	.word	GSU+56
	.size	_Z9fx_adc_r6v, .-_Z9fx_adc_r6v
	.align	2
	.type	_Z9fx_adc_r7v, %function
_Z9fx_adc_r7v:
	@ args = 0, pretend = 0, frame = 4
	@ frame_needed = 1, uses_anonymous_args = 0
	mov	ip, sp
	stmfd	sp!, {fp, ip, lr, pc}
	sub	fp, ip, #4
	sub	sp, sp, #4
	ldr	r3, .L838
	ldr	r3, [r3, #104]
	ldr	r3, [r3, #0]
	mov	r3, r3, asl #16
	mov	r3, r3, lsr #16
	mov	r2, r3
	ldr	r3, .L838
	ldr	r3, [r3, #28]
	mov	r3, r3, asl #16
	mov	r3, r3, lsr #16
	add	r2, r2, r3
	ldr	r3, .L838
	ldr	r3, [r3, #124]
	mov	r3, r3, asl #16
	mov	r3, r3, lsr #16
	mov	r3, r3, asl #16
	mov	r3, r3, asr #16
	add	r3, r2, r3
	str	r3, [fp, #-16]
	ldr	r2, [fp, #-16]
	ldr	r3, .L838+4
	cmp	r2, r3
	movle	r2, #0
	movgt	r2, #1
	ldr	r3, .L838
	str	r2, [r3, #124]
	ldr	r3, .L838
	ldr	r3, [r3, #104]
	ldr	r2, [r3, #0]
	ldr	r3, .L838
	ldr	r3, [r3, #28]
	eor	r3, r2, r3
	mvn	r1, r3
	ldr	r3, .L838
	ldr	r2, [r3, #28]
	ldr	r3, [fp, #-16]
	eor	r3, r2, r3
	and	r3, r1, r3
	and	r2, r3, #32768
	ldr	r3, .L838
	str	r2, [r3, #128]
	ldr	r2, [fp, #-16]
	ldr	r3, .L838
	str	r2, [r3, #116]
	ldr	r2, [fp, #-16]
	ldr	r3, .L838
	str	r2, [r3, #120]
	ldr	r3, .L838
	ldr	r3, [r3, #60]
	add	r2, r3, #1
	ldr	r3, .L838
	str	r2, [r3, #60]
	ldr	r3, .L838
	ldr	r2, [r3, #100]
	ldr	r3, [fp, #-16]
	str	r3, [r2, #0]
	ldr	r3, .L838
	ldr	r2, [r3, #100]
	ldr	r3, .L838+8
	cmp	r2, r3
	bne	.L835
	ldr	r3, .L838
	ldr	r2, [r3, #468]
	ldr	r3, .L838
	ldr	r3, [r3, #56]
	mov	r3, r3, asl #16
	mov	r3, r3, lsr #16
	add	r3, r2, r3
	ldrb	r3, [r3, #0]	@ zero_extendqisi2
	ldr	r2, .L838
	strb	r3, [r2, #108]
.L835:
	ldr	r3, .L838
	ldr	r3, [r3, #72]
	bic	r2, r3, #4864
	ldr	r3, .L838
	str	r2, [r3, #72]
	ldr	r2, .L838
	ldr	r3, .L838
	str	r3, [r2, #104]
	ldr	r3, .L838
	ldr	r2, [r3, #104]
	ldr	r3, .L838
	str	r2, [r3, #100]
	ldmib	sp, {fp, sp, pc}
.L839:
	.align	2
.L838:
	.word	GSU
	.word	65535
	.word	GSU+56
	.size	_Z9fx_adc_r7v, .-_Z9fx_adc_r7v
	.align	2
	.type	_Z9fx_adc_r8v, %function
_Z9fx_adc_r8v:
	@ args = 0, pretend = 0, frame = 4
	@ frame_needed = 1, uses_anonymous_args = 0
	mov	ip, sp
	stmfd	sp!, {fp, ip, lr, pc}
	sub	fp, ip, #4
	sub	sp, sp, #4
	ldr	r3, .L844
	ldr	r3, [r3, #104]
	ldr	r3, [r3, #0]
	mov	r3, r3, asl #16
	mov	r3, r3, lsr #16
	mov	r2, r3
	ldr	r3, .L844
	ldr	r3, [r3, #32]
	mov	r3, r3, asl #16
	mov	r3, r3, lsr #16
	add	r2, r2, r3
	ldr	r3, .L844
	ldr	r3, [r3, #124]
	mov	r3, r3, asl #16
	mov	r3, r3, lsr #16
	mov	r3, r3, asl #16
	mov	r3, r3, asr #16
	add	r3, r2, r3
	str	r3, [fp, #-16]
	ldr	r2, [fp, #-16]
	ldr	r3, .L844+4
	cmp	r2, r3
	movle	r2, #0
	movgt	r2, #1
	ldr	r3, .L844
	str	r2, [r3, #124]
	ldr	r3, .L844
	ldr	r3, [r3, #104]
	ldr	r2, [r3, #0]
	ldr	r3, .L844
	ldr	r3, [r3, #32]
	eor	r3, r2, r3
	mvn	r1, r3
	ldr	r3, .L844
	ldr	r2, [r3, #32]
	ldr	r3, [fp, #-16]
	eor	r3, r2, r3
	and	r3, r1, r3
	and	r2, r3, #32768
	ldr	r3, .L844
	str	r2, [r3, #128]
	ldr	r2, [fp, #-16]
	ldr	r3, .L844
	str	r2, [r3, #116]
	ldr	r2, [fp, #-16]
	ldr	r3, .L844
	str	r2, [r3, #120]
	ldr	r3, .L844
	ldr	r3, [r3, #60]
	add	r2, r3, #1
	ldr	r3, .L844
	str	r2, [r3, #60]
	ldr	r3, .L844
	ldr	r2, [r3, #100]
	ldr	r3, [fp, #-16]
	str	r3, [r2, #0]
	ldr	r3, .L844
	ldr	r2, [r3, #100]
	ldr	r3, .L844+8
	cmp	r2, r3
	bne	.L841
	ldr	r3, .L844
	ldr	r2, [r3, #468]
	ldr	r3, .L844
	ldr	r3, [r3, #56]
	mov	r3, r3, asl #16
	mov	r3, r3, lsr #16
	add	r3, r2, r3
	ldrb	r3, [r3, #0]	@ zero_extendqisi2
	ldr	r2, .L844
	strb	r3, [r2, #108]
.L841:
	ldr	r3, .L844
	ldr	r3, [r3, #72]
	bic	r2, r3, #4864
	ldr	r3, .L844
	str	r2, [r3, #72]
	ldr	r2, .L844
	ldr	r3, .L844
	str	r3, [r2, #104]
	ldr	r3, .L844
	ldr	r2, [r3, #104]
	ldr	r3, .L844
	str	r2, [r3, #100]
	ldmib	sp, {fp, sp, pc}
.L845:
	.align	2
.L844:
	.word	GSU
	.word	65535
	.word	GSU+56
	.size	_Z9fx_adc_r8v, .-_Z9fx_adc_r8v
	.align	2
	.type	_Z9fx_adc_r9v, %function
_Z9fx_adc_r9v:
	@ args = 0, pretend = 0, frame = 4
	@ frame_needed = 1, uses_anonymous_args = 0
	mov	ip, sp
	stmfd	sp!, {fp, ip, lr, pc}
	sub	fp, ip, #4
	sub	sp, sp, #4
	ldr	r3, .L850
	ldr	r3, [r3, #104]
	ldr	r3, [r3, #0]
	mov	r3, r3, asl #16
	mov	r3, r3, lsr #16
	mov	r2, r3
	ldr	r3, .L850
	ldr	r3, [r3, #36]
	mov	r3, r3, asl #16
	mov	r3, r3, lsr #16
	add	r2, r2, r3
	ldr	r3, .L850
	ldr	r3, [r3, #124]
	mov	r3, r3, asl #16
	mov	r3, r3, lsr #16
	mov	r3, r3, asl #16
	mov	r3, r3, asr #16
	add	r3, r2, r3
	str	r3, [fp, #-16]
	ldr	r2, [fp, #-16]
	ldr	r3, .L850+4
	cmp	r2, r3
	movle	r2, #0
	movgt	r2, #1
	ldr	r3, .L850
	str	r2, [r3, #124]
	ldr	r3, .L850
	ldr	r3, [r3, #104]
	ldr	r2, [r3, #0]
	ldr	r3, .L850
	ldr	r3, [r3, #36]
	eor	r3, r2, r3
	mvn	r1, r3
	ldr	r3, .L850
	ldr	r2, [r3, #36]
	ldr	r3, [fp, #-16]
	eor	r3, r2, r3
	and	r3, r1, r3
	and	r2, r3, #32768
	ldr	r3, .L850
	str	r2, [r3, #128]
	ldr	r2, [fp, #-16]
	ldr	r3, .L850
	str	r2, [r3, #116]
	ldr	r2, [fp, #-16]
	ldr	r3, .L850
	str	r2, [r3, #120]
	ldr	r3, .L850
	ldr	r3, [r3, #60]
	add	r2, r3, #1
	ldr	r3, .L850
	str	r2, [r3, #60]
	ldr	r3, .L850
	ldr	r2, [r3, #100]
	ldr	r3, [fp, #-16]
	str	r3, [r2, #0]
	ldr	r3, .L850
	ldr	r2, [r3, #100]
	ldr	r3, .L850+8
	cmp	r2, r3
	bne	.L847
	ldr	r3, .L850
	ldr	r2, [r3, #468]
	ldr	r3, .L850
	ldr	r3, [r3, #56]
	mov	r3, r3, asl #16
	mov	r3, r3, lsr #16
	add	r3, r2, r3
	ldrb	r3, [r3, #0]	@ zero_extendqisi2
	ldr	r2, .L850
	strb	r3, [r2, #108]
.L847:
	ldr	r3, .L850
	ldr	r3, [r3, #72]
	bic	r2, r3, #4864
	ldr	r3, .L850
	str	r2, [r3, #72]
	ldr	r2, .L850
	ldr	r3, .L850
	str	r3, [r2, #104]
	ldr	r3, .L850
	ldr	r2, [r3, #104]
	ldr	r3, .L850
	str	r2, [r3, #100]
	ldmib	sp, {fp, sp, pc}
.L851:
	.align	2
.L850:
	.word	GSU
	.word	65535
	.word	GSU+56
	.size	_Z9fx_adc_r9v, .-_Z9fx_adc_r9v
	.align	2
	.type	_Z10fx_adc_r10v, %function
_Z10fx_adc_r10v:
	@ args = 0, pretend = 0, frame = 4
	@ frame_needed = 1, uses_anonymous_args = 0
	mov	ip, sp
	stmfd	sp!, {fp, ip, lr, pc}
	sub	fp, ip, #4
	sub	sp, sp, #4
	ldr	r3, .L856
	ldr	r3, [r3, #104]
	ldr	r3, [r3, #0]
	mov	r3, r3, asl #16
	mov	r3, r3, lsr #16
	mov	r2, r3
	ldr	r3, .L856
	ldr	r3, [r3, #40]
	mov	r3, r3, asl #16
	mov	r3, r3, lsr #16
	add	r2, r2, r3
	ldr	r3, .L856
	ldr	r3, [r3, #124]
	mov	r3, r3, asl #16
	mov	r3, r3, lsr #16
	mov	r3, r3, asl #16
	mov	r3, r3, asr #16
	add	r3, r2, r3
	str	r3, [fp, #-16]
	ldr	r2, [fp, #-16]
	ldr	r3, .L856+4
	cmp	r2, r3
	movle	r2, #0
	movgt	r2, #1
	ldr	r3, .L856
	str	r2, [r3, #124]
	ldr	r3, .L856
	ldr	r3, [r3, #104]
	ldr	r2, [r3, #0]
	ldr	r3, .L856
	ldr	r3, [r3, #40]
	eor	r3, r2, r3
	mvn	r1, r3
	ldr	r3, .L856
	ldr	r2, [r3, #40]
	ldr	r3, [fp, #-16]
	eor	r3, r2, r3
	and	r3, r1, r3
	and	r2, r3, #32768
	ldr	r3, .L856
	str	r2, [r3, #128]
	ldr	r2, [fp, #-16]
	ldr	r3, .L856
	str	r2, [r3, #116]
	ldr	r2, [fp, #-16]
	ldr	r3, .L856
	str	r2, [r3, #120]
	ldr	r3, .L856
	ldr	r3, [r3, #60]
	add	r2, r3, #1
	ldr	r3, .L856
	str	r2, [r3, #60]
	ldr	r3, .L856
	ldr	r2, [r3, #100]
	ldr	r3, [fp, #-16]
	str	r3, [r2, #0]
	ldr	r3, .L856
	ldr	r2, [r3, #100]
	ldr	r3, .L856+8
	cmp	r2, r3
	bne	.L853
	ldr	r3, .L856
	ldr	r2, [r3, #468]
	ldr	r3, .L856
	ldr	r3, [r3, #56]
	mov	r3, r3, asl #16
	mov	r3, r3, lsr #16
	add	r3, r2, r3
	ldrb	r3, [r3, #0]	@ zero_extendqisi2
	ldr	r2, .L856
	strb	r3, [r2, #108]
.L853:
	ldr	r3, .L856
	ldr	r3, [r3, #72]
	bic	r2, r3, #4864
	ldr	r3, .L856
	str	r2, [r3, #72]
	ldr	r2, .L856
	ldr	r3, .L856
	str	r3, [r2, #104]
	ldr	r3, .L856
	ldr	r2, [r3, #104]
	ldr	r3, .L856
	str	r2, [r3, #100]
	ldmib	sp, {fp, sp, pc}
.L857:
	.align	2
.L856:
	.word	GSU
	.word	65535
	.word	GSU+56
	.size	_Z10fx_adc_r10v, .-_Z10fx_adc_r10v
	.align	2
	.type	_Z10fx_adc_r11v, %function
_Z10fx_adc_r11v:
	@ args = 0, pretend = 0, frame = 4
	@ frame_needed = 1, uses_anonymous_args = 0
	mov	ip, sp
	stmfd	sp!, {fp, ip, lr, pc}
	sub	fp, ip, #4
	sub	sp, sp, #4
	ldr	r3, .L862
	ldr	r3, [r3, #104]
	ldr	r3, [r3, #0]
	mov	r3, r3, asl #16
	mov	r3, r3, lsr #16
	mov	r2, r3
	ldr	r3, .L862
	ldr	r3, [r3, #44]
	mov	r3, r3, asl #16
	mov	r3, r3, lsr #16
	add	r2, r2, r3
	ldr	r3, .L862
	ldr	r3, [r3, #124]
	mov	r3, r3, asl #16
	mov	r3, r3, lsr #16
	mov	r3, r3, asl #16
	mov	r3, r3, asr #16
	add	r3, r2, r3
	str	r3, [fp, #-16]
	ldr	r2, [fp, #-16]
	ldr	r3, .L862+4
	cmp	r2, r3
	movle	r2, #0
	movgt	r2, #1
	ldr	r3, .L862
	str	r2, [r3, #124]
	ldr	r3, .L862
	ldr	r3, [r3, #104]
	ldr	r2, [r3, #0]
	ldr	r3, .L862
	ldr	r3, [r3, #44]
	eor	r3, r2, r3
	mvn	r1, r3
	ldr	r3, .L862
	ldr	r2, [r3, #44]
	ldr	r3, [fp, #-16]
	eor	r3, r2, r3
	and	r3, r1, r3
	and	r2, r3, #32768
	ldr	r3, .L862
	str	r2, [r3, #128]
	ldr	r2, [fp, #-16]
	ldr	r3, .L862
	str	r2, [r3, #116]
	ldr	r2, [fp, #-16]
	ldr	r3, .L862
	str	r2, [r3, #120]
	ldr	r3, .L862
	ldr	r3, [r3, #60]
	add	r2, r3, #1
	ldr	r3, .L862
	str	r2, [r3, #60]
	ldr	r3, .L862
	ldr	r2, [r3, #100]
	ldr	r3, [fp, #-16]
	str	r3, [r2, #0]
	ldr	r3, .L862
	ldr	r2, [r3, #100]
	ldr	r3, .L862+8
	cmp	r2, r3
	bne	.L859
	ldr	r3, .L862
	ldr	r2, [r3, #468]
	ldr	r3, .L862
	ldr	r3, [r3, #56]
	mov	r3, r3, asl #16
	mov	r3, r3, lsr #16
	add	r3, r2, r3
	ldrb	r3, [r3, #0]	@ zero_extendqisi2
	ldr	r2, .L862
	strb	r3, [r2, #108]
.L859:
	ldr	r3, .L862
	ldr	r3, [r3, #72]
	bic	r2, r3, #4864
	ldr	r3, .L862
	str	r2, [r3, #72]
	ldr	r2, .L862
	ldr	r3, .L862
	str	r3, [r2, #104]
	ldr	r3, .L862
	ldr	r2, [r3, #104]
	ldr	r3, .L862
	str	r2, [r3, #100]
	ldmib	sp, {fp, sp, pc}
.L863:
	.align	2
.L862:
	.word	GSU
	.word	65535
	.word	GSU+56
	.size	_Z10fx_adc_r11v, .-_Z10fx_adc_r11v
	.align	2
	.type	_Z10fx_adc_r12v, %function
_Z10fx_adc_r12v:
	@ args = 0, pretend = 0, frame = 4
	@ frame_needed = 1, uses_anonymous_args = 0
	mov	ip, sp
	stmfd	sp!, {fp, ip, lr, pc}
	sub	fp, ip, #4
	sub	sp, sp, #4
	ldr	r3, .L868
	ldr	r3, [r3, #104]
	ldr	r3, [r3, #0]
	mov	r3, r3, asl #16
	mov	r3, r3, lsr #16
	mov	r2, r3
	ldr	r3, .L868
	ldr	r3, [r3, #48]
	mov	r3, r3, asl #16
	mov	r3, r3, lsr #16
	add	r2, r2, r3
	ldr	r3, .L868
	ldr	r3, [r3, #124]
	mov	r3, r3, asl #16
	mov	r3, r3, lsr #16
	mov	r3, r3, asl #16
	mov	r3, r3, asr #16
	add	r3, r2, r3
	str	r3, [fp, #-16]
	ldr	r2, [fp, #-16]
	ldr	r3, .L868+4
	cmp	r2, r3
	movle	r2, #0
	movgt	r2, #1
	ldr	r3, .L868
	str	r2, [r3, #124]
	ldr	r3, .L868
	ldr	r3, [r3, #104]
	ldr	r2, [r3, #0]
	ldr	r3, .L868
	ldr	r3, [r3, #48]
	eor	r3, r2, r3
	mvn	r1, r3
	ldr	r3, .L868
	ldr	r2, [r3, #48]
	ldr	r3, [fp, #-16]
	eor	r3, r2, r3
	and	r3, r1, r3
	and	r2, r3, #32768
	ldr	r3, .L868
	str	r2, [r3, #128]
	ldr	r2, [fp, #-16]
	ldr	r3, .L868
	str	r2, [r3, #116]
	ldr	r2, [fp, #-16]
	ldr	r3, .L868
	str	r2, [r3, #120]
	ldr	r3, .L868
	ldr	r3, [r3, #60]
	add	r2, r3, #1
	ldr	r3, .L868
	str	r2, [r3, #60]
	ldr	r3, .L868
	ldr	r2, [r3, #100]
	ldr	r3, [fp, #-16]
	str	r3, [r2, #0]
	ldr	r3, .L868
	ldr	r2, [r3, #100]
	ldr	r3, .L868+8
	cmp	r2, r3
	bne	.L865
	ldr	r3, .L868
	ldr	r2, [r3, #468]
	ldr	r3, .L868
	ldr	r3, [r3, #56]
	mov	r3, r3, asl #16
	mov	r3, r3, lsr #16
	add	r3, r2, r3
	ldrb	r3, [r3, #0]	@ zero_extendqisi2
	ldr	r2, .L868
	strb	r3, [r2, #108]
.L865:
	ldr	r3, .L868
	ldr	r3, [r3, #72]
	bic	r2, r3, #4864
	ldr	r3, .L868
	str	r2, [r3, #72]
	ldr	r2, .L868
	ldr	r3, .L868
	str	r3, [r2, #104]
	ldr	r3, .L868
	ldr	r2, [r3, #104]
	ldr	r3, .L868
	str	r2, [r3, #100]
	ldmib	sp, {fp, sp, pc}
.L869:
	.align	2
.L868:
	.word	GSU
	.word	65535
	.word	GSU+56
	.size	_Z10fx_adc_r12v, .-_Z10fx_adc_r12v
	.align	2
	.type	_Z10fx_adc_r13v, %function
_Z10fx_adc_r13v:
	@ args = 0, pretend = 0, frame = 4
	@ frame_needed = 1, uses_anonymous_args = 0
	mov	ip, sp
	stmfd	sp!, {fp, ip, lr, pc}
	sub	fp, ip, #4
	sub	sp, sp, #4
	ldr	r3, .L874
	ldr	r3, [r3, #104]
	ldr	r3, [r3, #0]
	mov	r3, r3, asl #16
	mov	r3, r3, lsr #16
	mov	r2, r3
	ldr	r3, .L874
	ldr	r3, [r3, #52]
	mov	r3, r3, asl #16
	mov	r3, r3, lsr #16
	add	r2, r2, r3
	ldr	r3, .L874
	ldr	r3, [r3, #124]
	mov	r3, r3, asl #16
	mov	r3, r3, lsr #16
	mov	r3, r3, asl #16
	mov	r3, r3, asr #16
	add	r3, r2, r3
	str	r3, [fp, #-16]
	ldr	r2, [fp, #-16]
	ldr	r3, .L874+4
	cmp	r2, r3
	movle	r2, #0
	movgt	r2, #1
	ldr	r3, .L874
	str	r2, [r3, #124]
	ldr	r3, .L874
	ldr	r3, [r3, #104]
	ldr	r2, [r3, #0]
	ldr	r3, .L874
	ldr	r3, [r3, #52]
	eor	r3, r2, r3
	mvn	r1, r3
	ldr	r3, .L874
	ldr	r2, [r3, #52]
	ldr	r3, [fp, #-16]
	eor	r3, r2, r3
	and	r3, r1, r3
	and	r2, r3, #32768
	ldr	r3, .L874
	str	r2, [r3, #128]
	ldr	r2, [fp, #-16]
	ldr	r3, .L874
	str	r2, [r3, #116]
	ldr	r2, [fp, #-16]
	ldr	r3, .L874
	str	r2, [r3, #120]
	ldr	r3, .L874
	ldr	r3, [r3, #60]
	add	r2, r3, #1
	ldr	r3, .L874
	str	r2, [r3, #60]
	ldr	r3, .L874
	ldr	r2, [r3, #100]
	ldr	r3, [fp, #-16]
	str	r3, [r2, #0]
	ldr	r3, .L874
	ldr	r2, [r3, #100]
	ldr	r3, .L874+8
	cmp	r2, r3
	bne	.L871
	ldr	r3, .L874
	ldr	r2, [r3, #468]
	ldr	r3, .L874
	ldr	r3, [r3, #56]
	mov	r3, r3, asl #16
	mov	r3, r3, lsr #16
	add	r3, r2, r3
	ldrb	r3, [r3, #0]	@ zero_extendqisi2
	ldr	r2, .L874
	strb	r3, [r2, #108]
.L871:
	ldr	r3, .L874
	ldr	r3, [r3, #72]
	bic	r2, r3, #4864
	ldr	r3, .L874
	str	r2, [r3, #72]
	ldr	r2, .L874
	ldr	r3, .L874
	str	r3, [r2, #104]
	ldr	r3, .L874
	ldr	r2, [r3, #104]
	ldr	r3, .L874
	str	r2, [r3, #100]
	ldmib	sp, {fp, sp, pc}
.L875:
	.align	2
.L874:
	.word	GSU
	.word	65535
	.word	GSU+56
	.size	_Z10fx_adc_r13v, .-_Z10fx_adc_r13v
	.align	2
	.type	_Z10fx_adc_r14v, %function
_Z10fx_adc_r14v:
	@ args = 0, pretend = 0, frame = 4
	@ frame_needed = 1, uses_anonymous_args = 0
	mov	ip, sp
	stmfd	sp!, {fp, ip, lr, pc}
	sub	fp, ip, #4
	sub	sp, sp, #4
	ldr	r3, .L880
	ldr	r3, [r3, #104]
	ldr	r3, [r3, #0]
	mov	r3, r3, asl #16
	mov	r3, r3, lsr #16
	mov	r2, r3
	ldr	r3, .L880
	ldr	r3, [r3, #56]
	mov	r3, r3, asl #16
	mov	r3, r3, lsr #16
	add	r2, r2, r3
	ldr	r3, .L880
	ldr	r3, [r3, #124]
	mov	r3, r3, asl #16
	mov	r3, r3, lsr #16
	mov	r3, r3, asl #16
	mov	r3, r3, asr #16
	add	r3, r2, r3
	str	r3, [fp, #-16]
	ldr	r2, [fp, #-16]
	ldr	r3, .L880+4
	cmp	r2, r3
	movle	r2, #0
	movgt	r2, #1
	ldr	r3, .L880
	str	r2, [r3, #124]
	ldr	r3, .L880
	ldr	r3, [r3, #104]
	ldr	r2, [r3, #0]
	ldr	r3, .L880
	ldr	r3, [r3, #56]
	eor	r3, r2, r3
	mvn	r1, r3
	ldr	r3, .L880
	ldr	r2, [r3, #56]
	ldr	r3, [fp, #-16]
	eor	r3, r2, r3
	and	r3, r1, r3
	and	r2, r3, #32768
	ldr	r3, .L880
	str	r2, [r3, #128]
	ldr	r2, [fp, #-16]
	ldr	r3, .L880
	str	r2, [r3, #116]
	ldr	r2, [fp, #-16]
	ldr	r3, .L880
	str	r2, [r3, #120]
	ldr	r3, .L880
	ldr	r3, [r3, #60]
	add	r2, r3, #1
	ldr	r3, .L880
	str	r2, [r3, #60]
	ldr	r3, .L880
	ldr	r2, [r3, #100]
	ldr	r3, [fp, #-16]
	str	r3, [r2, #0]
	ldr	r3, .L880
	ldr	r2, [r3, #100]
	ldr	r3, .L880+8
	cmp	r2, r3
	bne	.L877
	ldr	r3, .L880
	ldr	r2, [r3, #468]
	ldr	r3, .L880
	ldr	r3, [r3, #56]
	mov	r3, r3, asl #16
	mov	r3, r3, lsr #16
	add	r3, r2, r3
	ldrb	r3, [r3, #0]	@ zero_extendqisi2
	ldr	r2, .L880
	strb	r3, [r2, #108]
.L877:
	ldr	r3, .L880
	ldr	r3, [r3, #72]
	bic	r2, r3, #4864
	ldr	r3, .L880
	str	r2, [r3, #72]
	ldr	r2, .L880
	ldr	r3, .L880
	str	r3, [r2, #104]
	ldr	r3, .L880
	ldr	r2, [r3, #104]
	ldr	r3, .L880
	str	r2, [r3, #100]
	ldmib	sp, {fp, sp, pc}
.L881:
	.align	2
.L880:
	.word	GSU
	.word	65535
	.word	GSU+56
	.size	_Z10fx_adc_r14v, .-_Z10fx_adc_r14v
	.align	2
	.type	_Z10fx_adc_r15v, %function
_Z10fx_adc_r15v:
	@ args = 0, pretend = 0, frame = 4
	@ frame_needed = 1, uses_anonymous_args = 0
	mov	ip, sp
	stmfd	sp!, {fp, ip, lr, pc}
	sub	fp, ip, #4
	sub	sp, sp, #4
	ldr	r3, .L886
	ldr	r3, [r3, #104]
	ldr	r3, [r3, #0]
	mov	r3, r3, asl #16
	mov	r3, r3, lsr #16
	mov	r2, r3
	ldr	r3, .L886
	ldr	r3, [r3, #60]
	mov	r3, r3, asl #16
	mov	r3, r3, lsr #16
	add	r2, r2, r3
	ldr	r3, .L886
	ldr	r3, [r3, #124]
	mov	r3, r3, asl #16
	mov	r3, r3, lsr #16
	mov	r3, r3, asl #16
	mov	r3, r3, asr #16
	add	r3, r2, r3
	str	r3, [fp, #-16]
	ldr	r2, [fp, #-16]
	ldr	r3, .L886+4
	cmp	r2, r3
	movle	r2, #0
	movgt	r2, #1
	ldr	r3, .L886
	str	r2, [r3, #124]
	ldr	r3, .L886
	ldr	r3, [r3, #104]
	ldr	r2, [r3, #0]
	ldr	r3, .L886
	ldr	r3, [r3, #60]
	eor	r3, r2, r3
	mvn	r1, r3
	ldr	r3, .L886
	ldr	r2, [r3, #60]
	ldr	r3, [fp, #-16]
	eor	r3, r2, r3
	and	r3, r1, r3
	and	r2, r3, #32768
	ldr	r3, .L886
	str	r2, [r3, #128]
	ldr	r2, [fp, #-16]
	ldr	r3, .L886
	str	r2, [r3, #116]
	ldr	r2, [fp, #-16]
	ldr	r3, .L886
	str	r2, [r3, #120]
	ldr	r3, .L886
	ldr	r3, [r3, #60]
	add	r2, r3, #1
	ldr	r3, .L886
	str	r2, [r3, #60]
	ldr	r3, .L886
	ldr	r2, [r3, #100]
	ldr	r3, [fp, #-16]
	str	r3, [r2, #0]
	ldr	r3, .L886
	ldr	r2, [r3, #100]
	ldr	r3, .L886+8
	cmp	r2, r3
	bne	.L883
	ldr	r3, .L886
	ldr	r2, [r3, #468]
	ldr	r3, .L886
	ldr	r3, [r3, #56]
	mov	r3, r3, asl #16
	mov	r3, r3, lsr #16
	add	r3, r2, r3
	ldrb	r3, [r3, #0]	@ zero_extendqisi2
	ldr	r2, .L886
	strb	r3, [r2, #108]
.L883:
	ldr	r3, .L886
	ldr	r3, [r3, #72]
	bic	r2, r3, #4864
	ldr	r3, .L886
	str	r2, [r3, #72]
	ldr	r2, .L886
	ldr	r3, .L886
	str	r3, [r2, #104]
	ldr	r3, .L886
	ldr	r2, [r3, #104]
	ldr	r3, .L886
	str	r2, [r3, #100]
	ldmib	sp, {fp, sp, pc}
.L887:
	.align	2
.L886:
	.word	GSU
	.word	65535
	.word	GSU+56
	.size	_Z10fx_adc_r15v, .-_Z10fx_adc_r15v
	.align	2
	.type	_Z9fx_add_i0v, %function
_Z9fx_add_i0v:
	@ args = 0, pretend = 0, frame = 4
	@ frame_needed = 1, uses_anonymous_args = 0
	mov	ip, sp
	stmfd	sp!, {fp, ip, lr, pc}
	sub	fp, ip, #4
	sub	sp, sp, #4
	ldr	r3, .L892
	ldr	r3, [r3, #104]
	ldr	r3, [r3, #0]
	mov	r3, r3, asl #16
	mov	r3, r3, lsr #16
	str	r3, [fp, #-16]
	ldr	r2, [fp, #-16]
	ldr	r3, .L892+4
	cmp	r2, r3
	movle	r2, #0
	movgt	r2, #1
	ldr	r3, .L892
	str	r2, [r3, #124]
	ldr	r3, .L892
	ldr	r3, [r3, #104]
	ldr	r3, [r3, #0]
	mvn	r2, r3
	ldr	r3, [fp, #-16]
	and	r3, r2, r3
	and	r2, r3, #32768
	ldr	r3, .L892
	str	r2, [r3, #128]
	ldr	r2, [fp, #-16]
	ldr	r3, .L892
	str	r2, [r3, #116]
	ldr	r2, [fp, #-16]
	ldr	r3, .L892
	str	r2, [r3, #120]
	ldr	r3, .L892
	ldr	r3, [r3, #60]
	add	r2, r3, #1
	ldr	r3, .L892
	str	r2, [r3, #60]
	ldr	r3, .L892
	ldr	r2, [r3, #100]
	ldr	r3, [fp, #-16]
	str	r3, [r2, #0]
	ldr	r3, .L892
	ldr	r2, [r3, #100]
	ldr	r3, .L892+8
	cmp	r2, r3
	bne	.L889
	ldr	r3, .L892
	ldr	r2, [r3, #468]
	ldr	r3, .L892
	ldr	r3, [r3, #56]
	mov	r3, r3, asl #16
	mov	r3, r3, lsr #16
	add	r3, r2, r3
	ldrb	r3, [r3, #0]	@ zero_extendqisi2
	ldr	r2, .L892
	strb	r3, [r2, #108]
.L889:
	ldr	r3, .L892
	ldr	r3, [r3, #72]
	bic	r2, r3, #4864
	ldr	r3, .L892
	str	r2, [r3, #72]
	ldr	r2, .L892
	ldr	r3, .L892
	str	r3, [r2, #104]
	ldr	r3, .L892
	ldr	r2, [r3, #104]
	ldr	r3, .L892
	str	r2, [r3, #100]
	ldmib	sp, {fp, sp, pc}
.L893:
	.align	2
.L892:
	.word	GSU
	.word	65535
	.word	GSU+56
	.size	_Z9fx_add_i0v, .-_Z9fx_add_i0v
	.align	2
	.type	_Z9fx_add_i1v, %function
_Z9fx_add_i1v:
	@ args = 0, pretend = 0, frame = 4
	@ frame_needed = 1, uses_anonymous_args = 0
	mov	ip, sp
	stmfd	sp!, {fp, ip, lr, pc}
	sub	fp, ip, #4
	sub	sp, sp, #4
	ldr	r3, .L898
	ldr	r3, [r3, #104]
	ldr	r3, [r3, #0]
	mov	r3, r3, asl #16
	mov	r3, r3, lsr #16
	add	r3, r3, #1
	str	r3, [fp, #-16]
	ldr	r2, [fp, #-16]
	ldr	r3, .L898+4
	cmp	r2, r3
	movle	r2, #0
	movgt	r2, #1
	ldr	r3, .L898
	str	r2, [r3, #124]
	ldr	r3, .L898
	ldr	r3, [r3, #104]
	ldr	r2, [r3, #0]
	mvn	r3, #1
	eor	r2, r2, r3
	ldr	r3, [fp, #-16]
	eor	r3, r3, #1
	and	r3, r2, r3
	and	r2, r3, #32768
	ldr	r3, .L898
	str	r2, [r3, #128]
	ldr	r2, [fp, #-16]
	ldr	r3, .L898
	str	r2, [r3, #116]
	ldr	r2, [fp, #-16]
	ldr	r3, .L898
	str	r2, [r3, #120]
	ldr	r3, .L898
	ldr	r3, [r3, #60]
	add	r2, r3, #1
	ldr	r3, .L898
	str	r2, [r3, #60]
	ldr	r3, .L898
	ldr	r2, [r3, #100]
	ldr	r3, [fp, #-16]
	str	r3, [r2, #0]
	ldr	r3, .L898
	ldr	r2, [r3, #100]
	ldr	r3, .L898+8
	cmp	r2, r3
	bne	.L895
	ldr	r3, .L898
	ldr	r2, [r3, #468]
	ldr	r3, .L898
	ldr	r3, [r3, #56]
	mov	r3, r3, asl #16
	mov	r3, r3, lsr #16
	add	r3, r2, r3
	ldrb	r3, [r3, #0]	@ zero_extendqisi2
	ldr	r2, .L898
	strb	r3, [r2, #108]
.L895:
	ldr	r3, .L898
	ldr	r3, [r3, #72]
	bic	r2, r3, #4864
	ldr	r3, .L898
	str	r2, [r3, #72]
	ldr	r2, .L898
	ldr	r3, .L898
	str	r3, [r2, #104]
	ldr	r3, .L898
	ldr	r2, [r3, #104]
	ldr	r3, .L898
	str	r2, [r3, #100]
	ldmib	sp, {fp, sp, pc}
.L899:
	.align	2
.L898:
	.word	GSU
	.word	65535
	.word	GSU+56
	.size	_Z9fx_add_i1v, .-_Z9fx_add_i1v
	.align	2
	.type	_Z9fx_add_i2v, %function
_Z9fx_add_i2v:
	@ args = 0, pretend = 0, frame = 4
	@ frame_needed = 1, uses_anonymous_args = 0
	mov	ip, sp
	stmfd	sp!, {fp, ip, lr, pc}
	sub	fp, ip, #4
	sub	sp, sp, #4
	ldr	r3, .L904
	ldr	r3, [r3, #104]
	ldr	r3, [r3, #0]
	mov	r3, r3, asl #16
	mov	r3, r3, lsr #16
	add	r3, r3, #2
	str	r3, [fp, #-16]
	ldr	r2, [fp, #-16]
	ldr	r3, .L904+4
	cmp	r2, r3
	movle	r2, #0
	movgt	r2, #1
	ldr	r3, .L904
	str	r2, [r3, #124]
	ldr	r3, .L904
	ldr	r3, [r3, #104]
	ldr	r2, [r3, #0]
	mvn	r3, #2
	eor	r2, r2, r3
	ldr	r3, [fp, #-16]
	eor	r3, r3, #2
	and	r3, r2, r3
	and	r2, r3, #32768
	ldr	r3, .L904
	str	r2, [r3, #128]
	ldr	r2, [fp, #-16]
	ldr	r3, .L904
	str	r2, [r3, #116]
	ldr	r2, [fp, #-16]
	ldr	r3, .L904
	str	r2, [r3, #120]
	ldr	r3, .L904
	ldr	r3, [r3, #60]
	add	r2, r3, #1
	ldr	r3, .L904
	str	r2, [r3, #60]
	ldr	r3, .L904
	ldr	r2, [r3, #100]
	ldr	r3, [fp, #-16]
	str	r3, [r2, #0]
	ldr	r3, .L904
	ldr	r2, [r3, #100]
	ldr	r3, .L904+8
	cmp	r2, r3
	bne	.L901
	ldr	r3, .L904
	ldr	r2, [r3, #468]
	ldr	r3, .L904
	ldr	r3, [r3, #56]
	mov	r3, r3, asl #16
	mov	r3, r3, lsr #16
	add	r3, r2, r3
	ldrb	r3, [r3, #0]	@ zero_extendqisi2
	ldr	r2, .L904
	strb	r3, [r2, #108]
.L901:
	ldr	r3, .L904
	ldr	r3, [r3, #72]
	bic	r2, r3, #4864
	ldr	r3, .L904
	str	r2, [r3, #72]
	ldr	r2, .L904
	ldr	r3, .L904
	str	r3, [r2, #104]
	ldr	r3, .L904
	ldr	r2, [r3, #104]
	ldr	r3, .L904
	str	r2, [r3, #100]
	ldmib	sp, {fp, sp, pc}
.L905:
	.align	2
.L904:
	.word	GSU
	.word	65535
	.word	GSU+56
	.size	_Z9fx_add_i2v, .-_Z9fx_add_i2v
	.align	2
	.type	_Z9fx_add_i3v, %function
_Z9fx_add_i3v:
	@ args = 0, pretend = 0, frame = 4
	@ frame_needed = 1, uses_anonymous_args = 0
	mov	ip, sp
	stmfd	sp!, {fp, ip, lr, pc}
	sub	fp, ip, #4
	sub	sp, sp, #4
	ldr	r3, .L910
	ldr	r3, [r3, #104]
	ldr	r3, [r3, #0]
	mov	r3, r3, asl #16
	mov	r3, r3, lsr #16
	add	r3, r3, #3
	str	r3, [fp, #-16]
	ldr	r2, [fp, #-16]
	ldr	r3, .L910+4
	cmp	r2, r3
	movle	r2, #0
	movgt	r2, #1
	ldr	r3, .L910
	str	r2, [r3, #124]
	ldr	r3, .L910
	ldr	r3, [r3, #104]
	ldr	r2, [r3, #0]
	mvn	r3, #3
	eor	r2, r2, r3
	ldr	r3, [fp, #-16]
	eor	r3, r3, #3
	and	r3, r2, r3
	and	r2, r3, #32768
	ldr	r3, .L910
	str	r2, [r3, #128]
	ldr	r2, [fp, #-16]
	ldr	r3, .L910
	str	r2, [r3, #116]
	ldr	r2, [fp, #-16]
	ldr	r3, .L910
	str	r2, [r3, #120]
	ldr	r3, .L910
	ldr	r3, [r3, #60]
	add	r2, r3, #1
	ldr	r3, .L910
	str	r2, [r3, #60]
	ldr	r3, .L910
	ldr	r2, [r3, #100]
	ldr	r3, [fp, #-16]
	str	r3, [r2, #0]
	ldr	r3, .L910
	ldr	r2, [r3, #100]
	ldr	r3, .L910+8
	cmp	r2, r3
	bne	.L907
	ldr	r3, .L910
	ldr	r2, [r3, #468]
	ldr	r3, .L910
	ldr	r3, [r3, #56]
	mov	r3, r3, asl #16
	mov	r3, r3, lsr #16
	add	r3, r2, r3
	ldrb	r3, [r3, #0]	@ zero_extendqisi2
	ldr	r2, .L910
	strb	r3, [r2, #108]
.L907:
	ldr	r3, .L910
	ldr	r3, [r3, #72]
	bic	r2, r3, #4864
	ldr	r3, .L910
	str	r2, [r3, #72]
	ldr	r2, .L910
	ldr	r3, .L910
	str	r3, [r2, #104]
	ldr	r3, .L910
	ldr	r2, [r3, #104]
	ldr	r3, .L910
	str	r2, [r3, #100]
	ldmib	sp, {fp, sp, pc}
.L911:
	.align	2
.L910:
	.word	GSU
	.word	65535
	.word	GSU+56
	.size	_Z9fx_add_i3v, .-_Z9fx_add_i3v
	.align	2
	.type	_Z9fx_add_i4v, %function
_Z9fx_add_i4v:
	@ args = 0, pretend = 0, frame = 4
	@ frame_needed = 1, uses_anonymous_args = 0
	mov	ip, sp
	stmfd	sp!, {fp, ip, lr, pc}
	sub	fp, ip, #4
	sub	sp, sp, #4
	ldr	r3, .L916
	ldr	r3, [r3, #104]
	ldr	r3, [r3, #0]
	mov	r3, r3, asl #16
	mov	r3, r3, lsr #16
	add	r3, r3, #4
	str	r3, [fp, #-16]
	ldr	r2, [fp, #-16]
	ldr	r3, .L916+4
	cmp	r2, r3
	movle	r2, #0
	movgt	r2, #1
	ldr	r3, .L916
	str	r2, [r3, #124]
	ldr	r3, .L916
	ldr	r3, [r3, #104]
	ldr	r2, [r3, #0]
	mvn	r3, #4
	eor	r2, r2, r3
	ldr	r3, [fp, #-16]
	eor	r3, r3, #4
	and	r3, r2, r3
	and	r2, r3, #32768
	ldr	r3, .L916
	str	r2, [r3, #128]
	ldr	r2, [fp, #-16]
	ldr	r3, .L916
	str	r2, [r3, #116]
	ldr	r2, [fp, #-16]
	ldr	r3, .L916
	str	r2, [r3, #120]
	ldr	r3, .L916
	ldr	r3, [r3, #60]
	add	r2, r3, #1
	ldr	r3, .L916
	str	r2, [r3, #60]
	ldr	r3, .L916
	ldr	r2, [r3, #100]
	ldr	r3, [fp, #-16]
	str	r3, [r2, #0]
	ldr	r3, .L916
	ldr	r2, [r3, #100]
	ldr	r3, .L916+8
	cmp	r2, r3
	bne	.L913
	ldr	r3, .L916
	ldr	r2, [r3, #468]
	ldr	r3, .L916
	ldr	r3, [r3, #56]
	mov	r3, r3, asl #16
	mov	r3, r3, lsr #16
	add	r3, r2, r3
	ldrb	r3, [r3, #0]	@ zero_extendqisi2
	ldr	r2, .L916
	strb	r3, [r2, #108]
.L913:
	ldr	r3, .L916
	ldr	r3, [r3, #72]
	bic	r2, r3, #4864
	ldr	r3, .L916
	str	r2, [r3, #72]
	ldr	r2, .L916
	ldr	r3, .L916
	str	r3, [r2, #104]
	ldr	r3, .L916
	ldr	r2, [r3, #104]
	ldr	r3, .L916
	str	r2, [r3, #100]
	ldmib	sp, {fp, sp, pc}
.L917:
	.align	2
.L916:
	.word	GSU
	.word	65535
	.word	GSU+56
	.size	_Z9fx_add_i4v, .-_Z9fx_add_i4v
	.align	2
	.type	_Z9fx_add_i5v, %function
_Z9fx_add_i5v:
	@ args = 0, pretend = 0, frame = 4
	@ frame_needed = 1, uses_anonymous_args = 0
	mov	ip, sp
	stmfd	sp!, {fp, ip, lr, pc}
	sub	fp, ip, #4
	sub	sp, sp, #4
	ldr	r3, .L922
	ldr	r3, [r3, #104]
	ldr	r3, [r3, #0]
	mov	r3, r3, asl #16
	mov	r3, r3, lsr #16
	add	r3, r3, #5
	str	r3, [fp, #-16]
	ldr	r2, [fp, #-16]
	ldr	r3, .L922+4
	cmp	r2, r3
	movle	r2, #0
	movgt	r2, #1
	ldr	r3, .L922
	str	r2, [r3, #124]
	ldr	r3, .L922
	ldr	r3, [r3, #104]
	ldr	r2, [r3, #0]
	mvn	r3, #5
	eor	r2, r2, r3
	ldr	r3, [fp, #-16]
	eor	r3, r3, #5
	and	r3, r2, r3
	and	r2, r3, #32768
	ldr	r3, .L922
	str	r2, [r3, #128]
	ldr	r2, [fp, #-16]
	ldr	r3, .L922
	str	r2, [r3, #116]
	ldr	r2, [fp, #-16]
	ldr	r3, .L922
	str	r2, [r3, #120]
	ldr	r3, .L922
	ldr	r3, [r3, #60]
	add	r2, r3, #1
	ldr	r3, .L922
	str	r2, [r3, #60]
	ldr	r3, .L922
	ldr	r2, [r3, #100]
	ldr	r3, [fp, #-16]
	str	r3, [r2, #0]
	ldr	r3, .L922
	ldr	r2, [r3, #100]
	ldr	r3, .L922+8
	cmp	r2, r3
	bne	.L919
	ldr	r3, .L922
	ldr	r2, [r3, #468]
	ldr	r3, .L922
	ldr	r3, [r3, #56]
	mov	r3, r3, asl #16
	mov	r3, r3, lsr #16
	add	r3, r2, r3
	ldrb	r3, [r3, #0]	@ zero_extendqisi2
	ldr	r2, .L922
	strb	r3, [r2, #108]
.L919:
	ldr	r3, .L922
	ldr	r3, [r3, #72]
	bic	r2, r3, #4864
	ldr	r3, .L922
	str	r2, [r3, #72]
	ldr	r2, .L922
	ldr	r3, .L922
	str	r3, [r2, #104]
	ldr	r3, .L922
	ldr	r2, [r3, #104]
	ldr	r3, .L922
	str	r2, [r3, #100]
	ldmib	sp, {fp, sp, pc}
.L923:
	.align	2
.L922:
	.word	GSU
	.word	65535
	.word	GSU+56
	.size	_Z9fx_add_i5v, .-_Z9fx_add_i5v
	.align	2
	.type	_Z9fx_add_i6v, %function
_Z9fx_add_i6v:
	@ args = 0, pretend = 0, frame = 4
	@ frame_needed = 1, uses_anonymous_args = 0
	mov	ip, sp
	stmfd	sp!, {fp, ip, lr, pc}
	sub	fp, ip, #4
	sub	sp, sp, #4
	ldr	r3, .L928
	ldr	r3, [r3, #104]
	ldr	r3, [r3, #0]
	mov	r3, r3, asl #16
	mov	r3, r3, lsr #16
	add	r3, r3, #6
	str	r3, [fp, #-16]
	ldr	r2, [fp, #-16]
	ldr	r3, .L928+4
	cmp	r2, r3
	movle	r2, #0
	movgt	r2, #1
	ldr	r3, .L928
	str	r2, [r3, #124]
	ldr	r3, .L928
	ldr	r3, [r3, #104]
	ldr	r2, [r3, #0]
	mvn	r3, #6
	eor	r2, r2, r3
	ldr	r3, [fp, #-16]
	eor	r3, r3, #6
	and	r3, r2, r3
	and	r2, r3, #32768
	ldr	r3, .L928
	str	r2, [r3, #128]
	ldr	r2, [fp, #-16]
	ldr	r3, .L928
	str	r2, [r3, #116]
	ldr	r2, [fp, #-16]
	ldr	r3, .L928
	str	r2, [r3, #120]
	ldr	r3, .L928
	ldr	r3, [r3, #60]
	add	r2, r3, #1
	ldr	r3, .L928
	str	r2, [r3, #60]
	ldr	r3, .L928
	ldr	r2, [r3, #100]
	ldr	r3, [fp, #-16]
	str	r3, [r2, #0]
	ldr	r3, .L928
	ldr	r2, [r3, #100]
	ldr	r3, .L928+8
	cmp	r2, r3
	bne	.L925
	ldr	r3, .L928
	ldr	r2, [r3, #468]
	ldr	r3, .L928
	ldr	r3, [r3, #56]
	mov	r3, r3, asl #16
	mov	r3, r3, lsr #16
	add	r3, r2, r3
	ldrb	r3, [r3, #0]	@ zero_extendqisi2
	ldr	r2, .L928
	strb	r3, [r2, #108]
.L925:
	ldr	r3, .L928
	ldr	r3, [r3, #72]
	bic	r2, r3, #4864
	ldr	r3, .L928
	str	r2, [r3, #72]
	ldr	r2, .L928
	ldr	r3, .L928
	str	r3, [r2, #104]
	ldr	r3, .L928
	ldr	r2, [r3, #104]
	ldr	r3, .L928
	str	r2, [r3, #100]
	ldmib	sp, {fp, sp, pc}
.L929:
	.align	2
.L928:
	.word	GSU
	.word	65535
	.word	GSU+56
	.size	_Z9fx_add_i6v, .-_Z9fx_add_i6v
	.align	2
	.type	_Z9fx_add_i7v, %function
_Z9fx_add_i7v:
	@ args = 0, pretend = 0, frame = 4
	@ frame_needed = 1, uses_anonymous_args = 0
	mov	ip, sp
	stmfd	sp!, {fp, ip, lr, pc}
	sub	fp, ip, #4
	sub	sp, sp, #4
	ldr	r3, .L934
	ldr	r3, [r3, #104]
	ldr	r3, [r3, #0]
	mov	r3, r3, asl #16
	mov	r3, r3, lsr #16
	add	r3, r3, #7
	str	r3, [fp, #-16]
	ldr	r2, [fp, #-16]
	ldr	r3, .L934+4
	cmp	r2, r3
	movle	r2, #0
	movgt	r2, #1
	ldr	r3, .L934
	str	r2, [r3, #124]
	ldr	r3, .L934
	ldr	r3, [r3, #104]
	ldr	r2, [r3, #0]
	mvn	r3, #7
	eor	r2, r2, r3
	ldr	r3, [fp, #-16]
	eor	r3, r3, #7
	and	r3, r2, r3
	and	r2, r3, #32768
	ldr	r3, .L934
	str	r2, [r3, #128]
	ldr	r2, [fp, #-16]
	ldr	r3, .L934
	str	r2, [r3, #116]
	ldr	r2, [fp, #-16]
	ldr	r3, .L934
	str	r2, [r3, #120]
	ldr	r3, .L934
	ldr	r3, [r3, #60]
	add	r2, r3, #1
	ldr	r3, .L934
	str	r2, [r3, #60]
	ldr	r3, .L934
	ldr	r2, [r3, #100]
	ldr	r3, [fp, #-16]
	str	r3, [r2, #0]
	ldr	r3, .L934
	ldr	r2, [r3, #100]
	ldr	r3, .L934+8
	cmp	r2, r3
	bne	.L931
	ldr	r3, .L934
	ldr	r2, [r3, #468]
	ldr	r3, .L934
	ldr	r3, [r3, #56]
	mov	r3, r3, asl #16
	mov	r3, r3, lsr #16
	add	r3, r2, r3
	ldrb	r3, [r3, #0]	@ zero_extendqisi2
	ldr	r2, .L934
	strb	r3, [r2, #108]
.L931:
	ldr	r3, .L934
	ldr	r3, [r3, #72]
	bic	r2, r3, #4864
	ldr	r3, .L934
	str	r2, [r3, #72]
	ldr	r2, .L934
	ldr	r3, .L934
	str	r3, [r2, #104]
	ldr	r3, .L934
	ldr	r2, [r3, #104]
	ldr	r3, .L934
	str	r2, [r3, #100]
	ldmib	sp, {fp, sp, pc}
.L935:
	.align	2
.L934:
	.word	GSU
	.word	65535
	.word	GSU+56
	.size	_Z9fx_add_i7v, .-_Z9fx_add_i7v
	.align	2
	.type	_Z9fx_add_i8v, %function
_Z9fx_add_i8v:
	@ args = 0, pretend = 0, frame = 4
	@ frame_needed = 1, uses_anonymous_args = 0
	mov	ip, sp
	stmfd	sp!, {fp, ip, lr, pc}
	sub	fp, ip, #4
	sub	sp, sp, #4
	ldr	r3, .L940
	ldr	r3, [r3, #104]
	ldr	r3, [r3, #0]
	mov	r3, r3, asl #16
	mov	r3, r3, lsr #16
	add	r3, r3, #8
	str	r3, [fp, #-16]
	ldr	r2, [fp, #-16]
	ldr	r3, .L940+4
	cmp	r2, r3
	movle	r2, #0
	movgt	r2, #1
	ldr	r3, .L940
	str	r2, [r3, #124]
	ldr	r3, .L940
	ldr	r3, [r3, #104]
	ldr	r2, [r3, #0]
	mvn	r3, #8
	eor	r2, r2, r3
	ldr	r3, [fp, #-16]
	eor	r3, r3, #8
	and	r3, r2, r3
	and	r2, r3, #32768
	ldr	r3, .L940
	str	r2, [r3, #128]
	ldr	r2, [fp, #-16]
	ldr	r3, .L940
	str	r2, [r3, #116]
	ldr	r2, [fp, #-16]
	ldr	r3, .L940
	str	r2, [r3, #120]
	ldr	r3, .L940
	ldr	r3, [r3, #60]
	add	r2, r3, #1
	ldr	r3, .L940
	str	r2, [r3, #60]
	ldr	r3, .L940
	ldr	r2, [r3, #100]
	ldr	r3, [fp, #-16]
	str	r3, [r2, #0]
	ldr	r3, .L940
	ldr	r2, [r3, #100]
	ldr	r3, .L940+8
	cmp	r2, r3
	bne	.L937
	ldr	r3, .L940
	ldr	r2, [r3, #468]
	ldr	r3, .L940
	ldr	r3, [r3, #56]
	mov	r3, r3, asl #16
	mov	r3, r3, lsr #16
	add	r3, r2, r3
	ldrb	r3, [r3, #0]	@ zero_extendqisi2
	ldr	r2, .L940
	strb	r3, [r2, #108]
.L937:
	ldr	r3, .L940
	ldr	r3, [r3, #72]
	bic	r2, r3, #4864
	ldr	r3, .L940
	str	r2, [r3, #72]
	ldr	r2, .L940
	ldr	r3, .L940
	str	r3, [r2, #104]
	ldr	r3, .L940
	ldr	r2, [r3, #104]
	ldr	r3, .L940
	str	r2, [r3, #100]
	ldmib	sp, {fp, sp, pc}
.L941:
	.align	2
.L940:
	.word	GSU
	.word	65535
	.word	GSU+56
	.size	_Z9fx_add_i8v, .-_Z9fx_add_i8v
	.align	2
	.type	_Z9fx_add_i9v, %function
_Z9fx_add_i9v:
	@ args = 0, pretend = 0, frame = 4
	@ frame_needed = 1, uses_anonymous_args = 0
	mov	ip, sp
	stmfd	sp!, {fp, ip, lr, pc}
	sub	fp, ip, #4
	sub	sp, sp, #4
	ldr	r3, .L946
	ldr	r3, [r3, #104]
	ldr	r3, [r3, #0]
	mov	r3, r3, asl #16
	mov	r3, r3, lsr #16
	add	r3, r3, #9
	str	r3, [fp, #-16]
	ldr	r2, [fp, #-16]
	ldr	r3, .L946+4
	cmp	r2, r3
	movle	r2, #0
	movgt	r2, #1
	ldr	r3, .L946
	str	r2, [r3, #124]
	ldr	r3, .L946
	ldr	r3, [r3, #104]
	ldr	r2, [r3, #0]
	mvn	r3, #9
	eor	r2, r2, r3
	ldr	r3, [fp, #-16]
	eor	r3, r3, #9
	and	r3, r2, r3
	and	r2, r3, #32768
	ldr	r3, .L946
	str	r2, [r3, #128]
	ldr	r2, [fp, #-16]
	ldr	r3, .L946
	str	r2, [r3, #116]
	ldr	r2, [fp, #-16]
	ldr	r3, .L946
	str	r2, [r3, #120]
	ldr	r3, .L946
	ldr	r3, [r3, #60]
	add	r2, r3, #1
	ldr	r3, .L946
	str	r2, [r3, #60]
	ldr	r3, .L946
	ldr	r2, [r3, #100]
	ldr	r3, [fp, #-16]
	str	r3, [r2, #0]
	ldr	r3, .L946
	ldr	r2, [r3, #100]
	ldr	r3, .L946+8
	cmp	r2, r3
	bne	.L943
	ldr	r3, .L946
	ldr	r2, [r3, #468]
	ldr	r3, .L946
	ldr	r3, [r3, #56]
	mov	r3, r3, asl #16
	mov	r3, r3, lsr #16
	add	r3, r2, r3
	ldrb	r3, [r3, #0]	@ zero_extendqisi2
	ldr	r2, .L946
	strb	r3, [r2, #108]
.L943:
	ldr	r3, .L946
	ldr	r3, [r3, #72]
	bic	r2, r3, #4864
	ldr	r3, .L946
	str	r2, [r3, #72]
	ldr	r2, .L946
	ldr	r3, .L946
	str	r3, [r2, #104]
	ldr	r3, .L946
	ldr	r2, [r3, #104]
	ldr	r3, .L946
	str	r2, [r3, #100]
	ldmib	sp, {fp, sp, pc}
.L947:
	.align	2
.L946:
	.word	GSU
	.word	65535
	.word	GSU+56
	.size	_Z9fx_add_i9v, .-_Z9fx_add_i9v
	.align	2
	.type	_Z10fx_add_i10v, %function
_Z10fx_add_i10v:
	@ args = 0, pretend = 0, frame = 4
	@ frame_needed = 1, uses_anonymous_args = 0
	mov	ip, sp
	stmfd	sp!, {fp, ip, lr, pc}
	sub	fp, ip, #4
	sub	sp, sp, #4
	ldr	r3, .L952
	ldr	r3, [r3, #104]
	ldr	r3, [r3, #0]
	mov	r3, r3, asl #16
	mov	r3, r3, lsr #16
	add	r3, r3, #10
	str	r3, [fp, #-16]
	ldr	r2, [fp, #-16]
	ldr	r3, .L952+4
	cmp	r2, r3
	movle	r2, #0
	movgt	r2, #1
	ldr	r3, .L952
	str	r2, [r3, #124]
	ldr	r3, .L952
	ldr	r3, [r3, #104]
	ldr	r2, [r3, #0]
	mvn	r3, #10
	eor	r2, r2, r3
	ldr	r3, [fp, #-16]
	eor	r3, r3, #10
	and	r3, r2, r3
	and	r2, r3, #32768
	ldr	r3, .L952
	str	r2, [r3, #128]
	ldr	r2, [fp, #-16]
	ldr	r3, .L952
	str	r2, [r3, #116]
	ldr	r2, [fp, #-16]
	ldr	r3, .L952
	str	r2, [r3, #120]
	ldr	r3, .L952
	ldr	r3, [r3, #60]
	add	r2, r3, #1
	ldr	r3, .L952
	str	r2, [r3, #60]
	ldr	r3, .L952
	ldr	r2, [r3, #100]
	ldr	r3, [fp, #-16]
	str	r3, [r2, #0]
	ldr	r3, .L952
	ldr	r2, [r3, #100]
	ldr	r3, .L952+8
	cmp	r2, r3
	bne	.L949
	ldr	r3, .L952
	ldr	r2, [r3, #468]
	ldr	r3, .L952
	ldr	r3, [r3, #56]
	mov	r3, r3, asl #16
	mov	r3, r3, lsr #16
	add	r3, r2, r3
	ldrb	r3, [r3, #0]	@ zero_extendqisi2
	ldr	r2, .L952
	strb	r3, [r2, #108]
.L949:
	ldr	r3, .L952
	ldr	r3, [r3, #72]
	bic	r2, r3, #4864
	ldr	r3, .L952
	str	r2, [r3, #72]
	ldr	r2, .L952
	ldr	r3, .L952
	str	r3, [r2, #104]
	ldr	r3, .L952
	ldr	r2, [r3, #104]
	ldr	r3, .L952
	str	r2, [r3, #100]
	ldmib	sp, {fp, sp, pc}
.L953:
	.align	2
.L952:
	.word	GSU
	.word	65535
	.word	GSU+56
	.size	_Z10fx_add_i10v, .-_Z10fx_add_i10v
	.align	2
	.type	_Z10fx_add_i11v, %function
_Z10fx_add_i11v:
	@ args = 0, pretend = 0, frame = 4
	@ frame_needed = 1, uses_anonymous_args = 0
	mov	ip, sp
	stmfd	sp!, {fp, ip, lr, pc}
	sub	fp, ip, #4
	sub	sp, sp, #4
	ldr	r3, .L958
	ldr	r3, [r3, #104]
	ldr	r3, [r3, #0]
	mov	r3, r3, asl #16
	mov	r3, r3, lsr #16
	add	r3, r3, #11
	str	r3, [fp, #-16]
	ldr	r2, [fp, #-16]
	ldr	r3, .L958+4
	cmp	r2, r3
	movle	r2, #0
	movgt	r2, #1
	ldr	r3, .L958
	str	r2, [r3, #124]
	ldr	r3, .L958
	ldr	r3, [r3, #104]
	ldr	r2, [r3, #0]
	mvn	r3, #11
	eor	r2, r2, r3
	ldr	r3, [fp, #-16]
	eor	r3, r3, #11
	and	r3, r2, r3
	and	r2, r3, #32768
	ldr	r3, .L958
	str	r2, [r3, #128]
	ldr	r2, [fp, #-16]
	ldr	r3, .L958
	str	r2, [r3, #116]
	ldr	r2, [fp, #-16]
	ldr	r3, .L958
	str	r2, [r3, #120]
	ldr	r3, .L958
	ldr	r3, [r3, #60]
	add	r2, r3, #1
	ldr	r3, .L958
	str	r2, [r3, #60]
	ldr	r3, .L958
	ldr	r2, [r3, #100]
	ldr	r3, [fp, #-16]
	str	r3, [r2, #0]
	ldr	r3, .L958
	ldr	r2, [r3, #100]
	ldr	r3, .L958+8
	cmp	r2, r3
	bne	.L955
	ldr	r3, .L958
	ldr	r2, [r3, #468]
	ldr	r3, .L958
	ldr	r3, [r3, #56]
	mov	r3, r3, asl #16
	mov	r3, r3, lsr #16
	add	r3, r2, r3
	ldrb	r3, [r3, #0]	@ zero_extendqisi2
	ldr	r2, .L958
	strb	r3, [r2, #108]
.L955:
	ldr	r3, .L958
	ldr	r3, [r3, #72]
	bic	r2, r3, #4864
	ldr	r3, .L958
	str	r2, [r3, #72]
	ldr	r2, .L958
	ldr	r3, .L958
	str	r3, [r2, #104]
	ldr	r3, .L958
	ldr	r2, [r3, #104]
	ldr	r3, .L958
	str	r2, [r3, #100]
	ldmib	sp, {fp, sp, pc}
.L959:
	.align	2
.L958:
	.word	GSU
	.word	65535
	.word	GSU+56
	.size	_Z10fx_add_i11v, .-_Z10fx_add_i11v
	.align	2
	.type	_Z10fx_add_i12v, %function
_Z10fx_add_i12v:
	@ args = 0, pretend = 0, frame = 4
	@ frame_needed = 1, uses_anonymous_args = 0
	mov	ip, sp
	stmfd	sp!, {fp, ip, lr, pc}
	sub	fp, ip, #4
	sub	sp, sp, #4
	ldr	r3, .L964
	ldr	r3, [r3, #104]
	ldr	r3, [r3, #0]
	mov	r3, r3, asl #16
	mov	r3, r3, lsr #16
	add	r3, r3, #12
	str	r3, [fp, #-16]
	ldr	r2, [fp, #-16]
	ldr	r3, .L964+4
	cmp	r2, r3
	movle	r2, #0
	movgt	r2, #1
	ldr	r3, .L964
	str	r2, [r3, #124]
	ldr	r3, .L964
	ldr	r3, [r3, #104]
	ldr	r2, [r3, #0]
	mvn	r3, #12
	eor	r2, r2, r3
	ldr	r3, [fp, #-16]
	eor	r3, r3, #12
	and	r3, r2, r3
	and	r2, r3, #32768
	ldr	r3, .L964
	str	r2, [r3, #128]
	ldr	r2, [fp, #-16]
	ldr	r3, .L964
	str	r2, [r3, #116]
	ldr	r2, [fp, #-16]
	ldr	r3, .L964
	str	r2, [r3, #120]
	ldr	r3, .L964
	ldr	r3, [r3, #60]
	add	r2, r3, #1
	ldr	r3, .L964
	str	r2, [r3, #60]
	ldr	r3, .L964
	ldr	r2, [r3, #100]
	ldr	r3, [fp, #-16]
	str	r3, [r2, #0]
	ldr	r3, .L964
	ldr	r2, [r3, #100]
	ldr	r3, .L964+8
	cmp	r2, r3
	bne	.L961
	ldr	r3, .L964
	ldr	r2, [r3, #468]
	ldr	r3, .L964
	ldr	r3, [r3, #56]
	mov	r3, r3, asl #16
	mov	r3, r3, lsr #16
	add	r3, r2, r3
	ldrb	r3, [r3, #0]	@ zero_extendqisi2
	ldr	r2, .L964
	strb	r3, [r2, #108]
.L961:
	ldr	r3, .L964
	ldr	r3, [r3, #72]
	bic	r2, r3, #4864
	ldr	r3, .L964
	str	r2, [r3, #72]
	ldr	r2, .L964
	ldr	r3, .L964
	str	r3, [r2, #104]
	ldr	r3, .L964
	ldr	r2, [r3, #104]
	ldr	r3, .L964
	str	r2, [r3, #100]
	ldmib	sp, {fp, sp, pc}
.L965:
	.align	2
.L964:
	.word	GSU
	.word	65535
	.word	GSU+56
	.size	_Z10fx_add_i12v, .-_Z10fx_add_i12v
	.align	2
	.type	_Z10fx_add_i13v, %function
_Z10fx_add_i13v:
	@ args = 0, pretend = 0, frame = 4
	@ frame_needed = 1, uses_anonymous_args = 0
	mov	ip, sp
	stmfd	sp!, {fp, ip, lr, pc}
	sub	fp, ip, #4
	sub	sp, sp, #4
	ldr	r3, .L970
	ldr	r3, [r3, #104]
	ldr	r3, [r3, #0]
	mov	r3, r3, asl #16
	mov	r3, r3, lsr #16
	add	r3, r3, #13
	str	r3, [fp, #-16]
	ldr	r2, [fp, #-16]
	ldr	r3, .L970+4
	cmp	r2, r3
	movle	r2, #0
	movgt	r2, #1
	ldr	r3, .L970
	str	r2, [r3, #124]
	ldr	r3, .L970
	ldr	r3, [r3, #104]
	ldr	r2, [r3, #0]
	mvn	r3, #13
	eor	r2, r2, r3
	ldr	r3, [fp, #-16]
	eor	r3, r3, #13
	and	r3, r2, r3
	and	r2, r3, #32768
	ldr	r3, .L970
	str	r2, [r3, #128]
	ldr	r2, [fp, #-16]
	ldr	r3, .L970
	str	r2, [r3, #116]
	ldr	r2, [fp, #-16]
	ldr	r3, .L970
	str	r2, [r3, #120]
	ldr	r3, .L970
	ldr	r3, [r3, #60]
	add	r2, r3, #1
	ldr	r3, .L970
	str	r2, [r3, #60]
	ldr	r3, .L970
	ldr	r2, [r3, #100]
	ldr	r3, [fp, #-16]
	str	r3, [r2, #0]
	ldr	r3, .L970
	ldr	r2, [r3, #100]
	ldr	r3, .L970+8
	cmp	r2, r3
	bne	.L967
	ldr	r3, .L970
	ldr	r2, [r3, #468]
	ldr	r3, .L970
	ldr	r3, [r3, #56]
	mov	r3, r3, asl #16
	mov	r3, r3, lsr #16
	add	r3, r2, r3
	ldrb	r3, [r3, #0]	@ zero_extendqisi2
	ldr	r2, .L970
	strb	r3, [r2, #108]
.L967:
	ldr	r3, .L970
	ldr	r3, [r3, #72]
	bic	r2, r3, #4864
	ldr	r3, .L970
	str	r2, [r3, #72]
	ldr	r2, .L970
	ldr	r3, .L970
	str	r3, [r2, #104]
	ldr	r3, .L970
	ldr	r2, [r3, #104]
	ldr	r3, .L970
	str	r2, [r3, #100]
	ldmib	sp, {fp, sp, pc}
.L971:
	.align	2
.L970:
	.word	GSU
	.word	65535
	.word	GSU+56
	.size	_Z10fx_add_i13v, .-_Z10fx_add_i13v
	.align	2
	.type	_Z10fx_add_i14v, %function
_Z10fx_add_i14v:
	@ args = 0, pretend = 0, frame = 4
	@ frame_needed = 1, uses_anonymous_args = 0
	mov	ip, sp
	stmfd	sp!, {fp, ip, lr, pc}
	sub	fp, ip, #4
	sub	sp, sp, #4
	ldr	r3, .L976
	ldr	r3, [r3, #104]
	ldr	r3, [r3, #0]
	mov	r3, r3, asl #16
	mov	r3, r3, lsr #16
	add	r3, r3, #14
	str	r3, [fp, #-16]
	ldr	r2, [fp, #-16]
	ldr	r3, .L976+4
	cmp	r2, r3
	movle	r2, #0
	movgt	r2, #1
	ldr	r3, .L976
	str	r2, [r3, #124]
	ldr	r3, .L976
	ldr	r3, [r3, #104]
	ldr	r2, [r3, #0]
	mvn	r3, #14
	eor	r2, r2, r3
	ldr	r3, [fp, #-16]
	eor	r3, r3, #14
	and	r3, r2, r3
	and	r2, r3, #32768
	ldr	r3, .L976
	str	r2, [r3, #128]
	ldr	r2, [fp, #-16]
	ldr	r3, .L976
	str	r2, [r3, #116]
	ldr	r2, [fp, #-16]
	ldr	r3, .L976
	str	r2, [r3, #120]
	ldr	r3, .L976
	ldr	r3, [r3, #60]
	add	r2, r3, #1
	ldr	r3, .L976
	str	r2, [r3, #60]
	ldr	r3, .L976
	ldr	r2, [r3, #100]
	ldr	r3, [fp, #-16]
	str	r3, [r2, #0]
	ldr	r3, .L976
	ldr	r2, [r3, #100]
	ldr	r3, .L976+8
	cmp	r2, r3
	bne	.L973
	ldr	r3, .L976
	ldr	r2, [r3, #468]
	ldr	r3, .L976
	ldr	r3, [r3, #56]
	mov	r3, r3, asl #16
	mov	r3, r3, lsr #16
	add	r3, r2, r3
	ldrb	r3, [r3, #0]	@ zero_extendqisi2
	ldr	r2, .L976
	strb	r3, [r2, #108]
.L973:
	ldr	r3, .L976
	ldr	r3, [r3, #72]
	bic	r2, r3, #4864
	ldr	r3, .L976
	str	r2, [r3, #72]
	ldr	r2, .L976
	ldr	r3, .L976
	str	r3, [r2, #104]
	ldr	r3, .L976
	ldr	r2, [r3, #104]
	ldr	r3, .L976
	str	r2, [r3, #100]
	ldmib	sp, {fp, sp, pc}
.L977:
	.align	2
.L976:
	.word	GSU
	.word	65535
	.word	GSU+56
	.size	_Z10fx_add_i14v, .-_Z10fx_add_i14v
	.align	2
	.type	_Z10fx_add_i15v, %function
_Z10fx_add_i15v:
	@ args = 0, pretend = 0, frame = 4
	@ frame_needed = 1, uses_anonymous_args = 0
	mov	ip, sp
	stmfd	sp!, {fp, ip, lr, pc}
	sub	fp, ip, #4
	sub	sp, sp, #4
	ldr	r3, .L982
	ldr	r3, [r3, #104]
	ldr	r3, [r3, #0]
	mov	r3, r3, asl #16
	mov	r3, r3, lsr #16
	add	r3, r3, #15
	str	r3, [fp, #-16]
	ldr	r2, [fp, #-16]
	ldr	r3, .L982+4
	cmp	r2, r3
	movle	r2, #0
	movgt	r2, #1
	ldr	r3, .L982
	str	r2, [r3, #124]
	ldr	r3, .L982
	ldr	r3, [r3, #104]
	ldr	r2, [r3, #0]
	mvn	r3, #15
	eor	r2, r2, r3
	ldr	r3, [fp, #-16]
	eor	r3, r3, #15
	and	r3, r2, r3
	and	r2, r3, #32768
	ldr	r3, .L982
	str	r2, [r3, #128]
	ldr	r2, [fp, #-16]
	ldr	r3, .L982
	str	r2, [r3, #116]
	ldr	r2, [fp, #-16]
	ldr	r3, .L982
	str	r2, [r3, #120]
	ldr	r3, .L982
	ldr	r3, [r3, #60]
	add	r2, r3, #1
	ldr	r3, .L982
	str	r2, [r3, #60]
	ldr	r3, .L982
	ldr	r2, [r3, #100]
	ldr	r3, [fp, #-16]
	str	r3, [r2, #0]
	ldr	r3, .L982
	ldr	r2, [r3, #100]
	ldr	r3, .L982+8
	cmp	r2, r3
	bne	.L979
	ldr	r3, .L982
	ldr	r2, [r3, #468]
	ldr	r3, .L982
	ldr	r3, [r3, #56]
	mov	r3, r3, asl #16
	mov	r3, r3, lsr #16
	add	r3, r2, r3
	ldrb	r3, [r3, #0]	@ zero_extendqisi2
	ldr	r2, .L982
	strb	r3, [r2, #108]
.L979:
	ldr	r3, .L982
	ldr	r3, [r3, #72]
	bic	r2, r3, #4864
	ldr	r3, .L982
	str	r2, [r3, #72]
	ldr	r2, .L982
	ldr	r3, .L982
	str	r3, [r2, #104]
	ldr	r3, .L982
	ldr	r2, [r3, #104]
	ldr	r3, .L982
	str	r2, [r3, #100]
	ldmib	sp, {fp, sp, pc}
.L983:
	.align	2
.L982:
	.word	GSU
	.word	65535
	.word	GSU+56
	.size	_Z10fx_add_i15v, .-_Z10fx_add_i15v
	.align	2
	.type	_Z9fx_adc_i0v, %function
_Z9fx_adc_i0v:
	@ args = 0, pretend = 0, frame = 4
	@ frame_needed = 1, uses_anonymous_args = 0
	mov	ip, sp
	stmfd	sp!, {fp, ip, lr, pc}
	sub	fp, ip, #4
	sub	sp, sp, #4
	ldr	r3, .L988
	ldr	r3, [r3, #104]
	ldr	r3, [r3, #0]
	mov	r3, r3, asl #16
	mov	r3, r3, lsr #16
	mov	r2, r3
	ldr	r3, .L988
	ldr	r3, [r3, #124]
	mov	r3, r3, asl #16
	mov	r3, r3, lsr #16
	add	r3, r2, r3
	str	r3, [fp, #-16]
	ldr	r2, [fp, #-16]
	ldr	r3, .L988+4
	cmp	r2, r3
	movle	r2, #0
	movgt	r2, #1
	ldr	r3, .L988
	str	r2, [r3, #124]
	ldr	r3, .L988
	ldr	r3, [r3, #104]
	ldr	r3, [r3, #0]
	mvn	r2, r3
	ldr	r3, [fp, #-16]
	and	r3, r2, r3
	and	r2, r3, #32768
	ldr	r3, .L988
	str	r2, [r3, #128]
	ldr	r2, [fp, #-16]
	ldr	r3, .L988
	str	r2, [r3, #116]
	ldr	r2, [fp, #-16]
	ldr	r3, .L988
	str	r2, [r3, #120]
	ldr	r3, .L988
	ldr	r3, [r3, #60]
	add	r2, r3, #1
	ldr	r3, .L988
	str	r2, [r3, #60]
	ldr	r3, .L988
	ldr	r2, [r3, #100]
	ldr	r3, [fp, #-16]
	str	r3, [r2, #0]
	ldr	r3, .L988
	ldr	r2, [r3, #100]
	ldr	r3, .L988+8
	cmp	r2, r3
	bne	.L985
	ldr	r3, .L988
	ldr	r2, [r3, #468]
	ldr	r3, .L988
	ldr	r3, [r3, #56]
	mov	r3, r3, asl #16
	mov	r3, r3, lsr #16
	add	r3, r2, r3
	ldrb	r3, [r3, #0]	@ zero_extendqisi2
	ldr	r2, .L988
	strb	r3, [r2, #108]
.L985:
	ldr	r3, .L988
	ldr	r3, [r3, #72]
	bic	r2, r3, #4864
	ldr	r3, .L988
	str	r2, [r3, #72]
	ldr	r2, .L988
	ldr	r3, .L988
	str	r3, [r2, #104]
	ldr	r3, .L988
	ldr	r2, [r3, #104]
	ldr	r3, .L988
	str	r2, [r3, #100]
	ldmib	sp, {fp, sp, pc}
.L989:
	.align	2
.L988:
	.word	GSU
	.word	65535
	.word	GSU+56
	.size	_Z9fx_adc_i0v, .-_Z9fx_adc_i0v
	.align	2
	.type	_Z9fx_adc_i1v, %function
_Z9fx_adc_i1v:
	@ args = 0, pretend = 0, frame = 4
	@ frame_needed = 1, uses_anonymous_args = 0
	mov	ip, sp
	stmfd	sp!, {fp, ip, lr, pc}
	sub	fp, ip, #4
	sub	sp, sp, #4
	ldr	r3, .L994
	ldr	r3, [r3, #104]
	ldr	r3, [r3, #0]
	mov	r3, r3, asl #16
	mov	r3, r3, lsr #16
	add	r2, r3, #1
	ldr	r3, .L994
	ldr	r3, [r3, #124]
	mov	r3, r3, asl #16
	mov	r3, r3, lsr #16
	add	r3, r2, r3
	str	r3, [fp, #-16]
	ldr	r2, [fp, #-16]
	ldr	r3, .L994+4
	cmp	r2, r3
	movle	r2, #0
	movgt	r2, #1
	ldr	r3, .L994
	str	r2, [r3, #124]
	ldr	r3, .L994
	ldr	r3, [r3, #104]
	ldr	r2, [r3, #0]
	mvn	r3, #1
	eor	r2, r2, r3
	ldr	r3, [fp, #-16]
	eor	r3, r3, #1
	and	r3, r2, r3
	and	r2, r3, #32768
	ldr	r3, .L994
	str	r2, [r3, #128]
	ldr	r2, [fp, #-16]
	ldr	r3, .L994
	str	r2, [r3, #116]
	ldr	r2, [fp, #-16]
	ldr	r3, .L994
	str	r2, [r3, #120]
	ldr	r3, .L994
	ldr	r3, [r3, #60]
	add	r2, r3, #1
	ldr	r3, .L994
	str	r2, [r3, #60]
	ldr	r3, .L994
	ldr	r2, [r3, #100]
	ldr	r3, [fp, #-16]
	str	r3, [r2, #0]
	ldr	r3, .L994
	ldr	r2, [r3, #100]
	ldr	r3, .L994+8
	cmp	r2, r3
	bne	.L991
	ldr	r3, .L994
	ldr	r2, [r3, #468]
	ldr	r3, .L994
	ldr	r3, [r3, #56]
	mov	r3, r3, asl #16
	mov	r3, r3, lsr #16
	add	r3, r2, r3
	ldrb	r3, [r3, #0]	@ zero_extendqisi2
	ldr	r2, .L994
	strb	r3, [r2, #108]
.L991:
	ldr	r3, .L994
	ldr	r3, [r3, #72]
	bic	r2, r3, #4864
	ldr	r3, .L994
	str	r2, [r3, #72]
	ldr	r2, .L994
	ldr	r3, .L994
	str	r3, [r2, #104]
	ldr	r3, .L994
	ldr	r2, [r3, #104]
	ldr	r3, .L994
	str	r2, [r3, #100]
	ldmib	sp, {fp, sp, pc}
.L995:
	.align	2
.L994:
	.word	GSU
	.word	65535
	.word	GSU+56
	.size	_Z9fx_adc_i1v, .-_Z9fx_adc_i1v
	.align	2
	.type	_Z9fx_adc_i2v, %function
_Z9fx_adc_i2v:
	@ args = 0, pretend = 0, frame = 4
	@ frame_needed = 1, uses_anonymous_args = 0
	mov	ip, sp
	stmfd	sp!, {fp, ip, lr, pc}
	sub	fp, ip, #4
	sub	sp, sp, #4
	ldr	r3, .L1000
	ldr	r3, [r3, #104]
	ldr	r3, [r3, #0]
	mov	r3, r3, asl #16
	mov	r3, r3, lsr #16
	add	r2, r3, #2
	ldr	r3, .L1000
	ldr	r3, [r3, #124]
	mov	r3, r3, asl #16
	mov	r3, r3, lsr #16
	add	r3, r2, r3
	str	r3, [fp, #-16]
	ldr	r2, [fp, #-16]
	ldr	r3, .L1000+4
	cmp	r2, r3
	movle	r2, #0
	movgt	r2, #1
	ldr	r3, .L1000
	str	r2, [r3, #124]
	ldr	r3, .L1000
	ldr	r3, [r3, #104]
	ldr	r2, [r3, #0]
	mvn	r3, #2
	eor	r2, r2, r3
	ldr	r3, [fp, #-16]
	eor	r3, r3, #2
	and	r3, r2, r3
	and	r2, r3, #32768
	ldr	r3, .L1000
	str	r2, [r3, #128]
	ldr	r2, [fp, #-16]
	ldr	r3, .L1000
	str	r2, [r3, #116]
	ldr	r2, [fp, #-16]
	ldr	r3, .L1000
	str	r2, [r3, #120]
	ldr	r3, .L1000
	ldr	r3, [r3, #60]
	add	r2, r3, #1
	ldr	r3, .L1000
	str	r2, [r3, #60]
	ldr	r3, .L1000
	ldr	r2, [r3, #100]
	ldr	r3, [fp, #-16]
	str	r3, [r2, #0]
	ldr	r3, .L1000
	ldr	r2, [r3, #100]
	ldr	r3, .L1000+8
	cmp	r2, r3
	bne	.L997
	ldr	r3, .L1000
	ldr	r2, [r3, #468]
	ldr	r3, .L1000
	ldr	r3, [r3, #56]
	mov	r3, r3, asl #16
	mov	r3, r3, lsr #16
	add	r3, r2, r3
	ldrb	r3, [r3, #0]	@ zero_extendqisi2
	ldr	r2, .L1000
	strb	r3, [r2, #108]
.L997:
	ldr	r3, .L1000
	ldr	r3, [r3, #72]
	bic	r2, r3, #4864
	ldr	r3, .L1000
	str	r2, [r3, #72]
	ldr	r2, .L1000
	ldr	r3, .L1000
	str	r3, [r2, #104]
	ldr	r3, .L1000
	ldr	r2, [r3, #104]
	ldr	r3, .L1000
	str	r2, [r3, #100]
	ldmib	sp, {fp, sp, pc}
.L1001:
	.align	2
.L1000:
	.word	GSU
	.word	65535
	.word	GSU+56
	.size	_Z9fx_adc_i2v, .-_Z9fx_adc_i2v
	.align	2
	.type	_Z9fx_adc_i3v, %function
_Z9fx_adc_i3v:
	@ args = 0, pretend = 0, frame = 4
	@ frame_needed = 1, uses_anonymous_args = 0
	mov	ip, sp
	stmfd	sp!, {fp, ip, lr, pc}
	sub	fp, ip, #4
	sub	sp, sp, #4
	ldr	r3, .L1006
	ldr	r3, [r3, #104]
	ldr	r3, [r3, #0]
	mov	r3, r3, asl #16
	mov	r3, r3, lsr #16
	add	r2, r3, #3
	ldr	r3, .L1006
	ldr	r3, [r3, #124]
	mov	r3, r3, asl #16
	mov	r3, r3, lsr #16
	add	r3, r2, r3
	str	r3, [fp, #-16]
	ldr	r2, [fp, #-16]
	ldr	r3, .L1006+4
	cmp	r2, r3
	movle	r2, #0
	movgt	r2, #1
	ldr	r3, .L1006
	str	r2, [r3, #124]
	ldr	r3, .L1006
	ldr	r3, [r3, #104]
	ldr	r2, [r3, #0]
	mvn	r3, #3
	eor	r2, r2, r3
	ldr	r3, [fp, #-16]
	eor	r3, r3, #3
	and	r3, r2, r3
	and	r2, r3, #32768
	ldr	r3, .L1006
	str	r2, [r3, #128]
	ldr	r2, [fp, #-16]
	ldr	r3, .L1006
	str	r2, [r3, #116]
	ldr	r2, [fp, #-16]
	ldr	r3, .L1006
	str	r2, [r3, #120]
	ldr	r3, .L1006
	ldr	r3, [r3, #60]
	add	r2, r3, #1
	ldr	r3, .L1006
	str	r2, [r3, #60]
	ldr	r3, .L1006
	ldr	r2, [r3, #100]
	ldr	r3, [fp, #-16]
	str	r3, [r2, #0]
	ldr	r3, .L1006
	ldr	r2, [r3, #100]
	ldr	r3, .L1006+8
	cmp	r2, r3
	bne	.L1003
	ldr	r3, .L1006
	ldr	r2, [r3, #468]
	ldr	r3, .L1006
	ldr	r3, [r3, #56]
	mov	r3, r3, asl #16
	mov	r3, r3, lsr #16
	add	r3, r2, r3
	ldrb	r3, [r3, #0]	@ zero_extendqisi2
	ldr	r2, .L1006
	strb	r3, [r2, #108]
.L1003:
	ldr	r3, .L1006
	ldr	r3, [r3, #72]
	bic	r2, r3, #4864
	ldr	r3, .L1006
	str	r2, [r3, #72]
	ldr	r2, .L1006
	ldr	r3, .L1006
	str	r3, [r2, #104]
	ldr	r3, .L1006
	ldr	r2, [r3, #104]
	ldr	r3, .L1006
	str	r2, [r3, #100]
	ldmib	sp, {fp, sp, pc}
.L1007:
	.align	2
.L1006:
	.word	GSU
	.word	65535
	.word	GSU+56
	.size	_Z9fx_adc_i3v, .-_Z9fx_adc_i3v
	.align	2
	.type	_Z9fx_adc_i4v, %function
_Z9fx_adc_i4v:
	@ args = 0, pretend = 0, frame = 4
	@ frame_needed = 1, uses_anonymous_args = 0
	mov	ip, sp
	stmfd	sp!, {fp, ip, lr, pc}
	sub	fp, ip, #4
	sub	sp, sp, #4
	ldr	r3, .L1012
	ldr	r3, [r3, #104]
	ldr	r3, [r3, #0]
	mov	r3, r3, asl #16
	mov	r3, r3, lsr #16
	add	r2, r3, #4
	ldr	r3, .L1012
	ldr	r3, [r3, #124]
	mov	r3, r3, asl #16
	mov	r3, r3, lsr #16
	add	r3, r2, r3
	str	r3, [fp, #-16]
	ldr	r2, [fp, #-16]
	ldr	r3, .L1012+4
	cmp	r2, r3
	movle	r2, #0
	movgt	r2, #1
	ldr	r3, .L1012
	str	r2, [r3, #124]
	ldr	r3, .L1012
	ldr	r3, [r3, #104]
	ldr	r2, [r3, #0]
	mvn	r3, #4
	eor	r2, r2, r3
	ldr	r3, [fp, #-16]
	eor	r3, r3, #4
	and	r3, r2, r3
	and	r2, r3, #32768
	ldr	r3, .L1012
	str	r2, [r3, #128]
	ldr	r2, [fp, #-16]
	ldr	r3, .L1012
	str	r2, [r3, #116]
	ldr	r2, [fp, #-16]
	ldr	r3, .L1012
	str	r2, [r3, #120]
	ldr	r3, .L1012
	ldr	r3, [r3, #60]
	add	r2, r3, #1
	ldr	r3, .L1012
	str	r2, [r3, #60]
	ldr	r3, .L1012
	ldr	r2, [r3, #100]
	ldr	r3, [fp, #-16]
	str	r3, [r2, #0]
	ldr	r3, .L1012
	ldr	r2, [r3, #100]
	ldr	r3, .L1012+8
	cmp	r2, r3
	bne	.L1009
	ldr	r3, .L1012
	ldr	r2, [r3, #468]
	ldr	r3, .L1012
	ldr	r3, [r3, #56]
	mov	r3, r3, asl #16
	mov	r3, r3, lsr #16
	add	r3, r2, r3
	ldrb	r3, [r3, #0]	@ zero_extendqisi2
	ldr	r2, .L1012
	strb	r3, [r2, #108]
.L1009:
	ldr	r3, .L1012
	ldr	r3, [r3, #72]
	bic	r2, r3, #4864
	ldr	r3, .L1012
	str	r2, [r3, #72]
	ldr	r2, .L1012
	ldr	r3, .L1012
	str	r3, [r2, #104]
	ldr	r3, .L1012
	ldr	r2, [r3, #104]
	ldr	r3, .L1012
	str	r2, [r3, #100]
	ldmib	sp, {fp, sp, pc}
.L1013:
	.align	2
.L1012:
	.word	GSU
	.word	65535
	.word	GSU+56
	.size	_Z9fx_adc_i4v, .-_Z9fx_adc_i4v
	.align	2
	.type	_Z9fx_adc_i5v, %function
_Z9fx_adc_i5v:
	@ args = 0, pretend = 0, frame = 4
	@ frame_needed = 1, uses_anonymous_args = 0
	mov	ip, sp
	stmfd	sp!, {fp, ip, lr, pc}
	sub	fp, ip, #4
	sub	sp, sp, #4
	ldr	r3, .L1018
	ldr	r3, [r3, #104]
	ldr	r3, [r3, #0]
	mov	r3, r3, asl #16
	mov	r3, r3, lsr #16
	add	r2, r3, #5
	ldr	r3, .L1018
	ldr	r3, [r3, #124]
	mov	r3, r3, asl #16
	mov	r3, r3, lsr #16
	add	r3, r2, r3
	str	r3, [fp, #-16]
	ldr	r2, [fp, #-16]
	ldr	r3, .L1018+4
	cmp	r2, r3
	movle	r2, #0
	movgt	r2, #1
	ldr	r3, .L1018
	str	r2, [r3, #124]
	ldr	r3, .L1018
	ldr	r3, [r3, #104]
	ldr	r2, [r3, #0]
	mvn	r3, #5
	eor	r2, r2, r3
	ldr	r3, [fp, #-16]
	eor	r3, r3, #5
	and	r3, r2, r3
	and	r2, r3, #32768
	ldr	r3, .L1018
	str	r2, [r3, #128]
	ldr	r2, [fp, #-16]
	ldr	r3, .L1018
	str	r2, [r3, #116]
	ldr	r2, [fp, #-16]
	ldr	r3, .L1018
	str	r2, [r3, #120]
	ldr	r3, .L1018
	ldr	r3, [r3, #60]
	add	r2, r3, #1
	ldr	r3, .L1018
	str	r2, [r3, #60]
	ldr	r3, .L1018
	ldr	r2, [r3, #100]
	ldr	r3, [fp, #-16]
	str	r3, [r2, #0]
	ldr	r3, .L1018
	ldr	r2, [r3, #100]
	ldr	r3, .L1018+8
	cmp	r2, r3
	bne	.L1015
	ldr	r3, .L1018
	ldr	r2, [r3, #468]
	ldr	r3, .L1018
	ldr	r3, [r3, #56]
	mov	r3, r3, asl #16
	mov	r3, r3, lsr #16
	add	r3, r2, r3
	ldrb	r3, [r3, #0]	@ zero_extendqisi2
	ldr	r2, .L1018
	strb	r3, [r2, #108]
.L1015:
	ldr	r3, .L1018
	ldr	r3, [r3, #72]
	bic	r2, r3, #4864
	ldr	r3, .L1018
	str	r2, [r3, #72]
	ldr	r2, .L1018
	ldr	r3, .L1018
	str	r3, [r2, #104]
	ldr	r3, .L1018
	ldr	r2, [r3, #104]
	ldr	r3, .L1018
	str	r2, [r3, #100]
	ldmib	sp, {fp, sp, pc}
.L1019:
	.align	2
.L1018:
	.word	GSU
	.word	65535
	.word	GSU+56
	.size	_Z9fx_adc_i5v, .-_Z9fx_adc_i5v
	.align	2
	.type	_Z9fx_adc_i6v, %function
_Z9fx_adc_i6v:
	@ args = 0, pretend = 0, frame = 4
	@ frame_needed = 1, uses_anonymous_args = 0
	mov	ip, sp
	stmfd	sp!, {fp, ip, lr, pc}
	sub	fp, ip, #4
	sub	sp, sp, #4
	ldr	r3, .L1024
	ldr	r3, [r3, #104]
	ldr	r3, [r3, #0]
	mov	r3, r3, asl #16
	mov	r3, r3, lsr #16
	add	r2, r3, #6
	ldr	r3, .L1024
	ldr	r3, [r3, #124]
	mov	r3, r3, asl #16
	mov	r3, r3, lsr #16
	add	r3, r2, r3
	str	r3, [fp, #-16]
	ldr	r2, [fp, #-16]
	ldr	r3, .L1024+4
	cmp	r2, r3
	movle	r2, #0
	movgt	r2, #1
	ldr	r3, .L1024
	str	r2, [r3, #124]
	ldr	r3, .L1024
	ldr	r3, [r3, #104]
	ldr	r2, [r3, #0]
	mvn	r3, #6
	eor	r2, r2, r3
	ldr	r3, [fp, #-16]
	eor	r3, r3, #6
	and	r3, r2, r3
	and	r2, r3, #32768
	ldr	r3, .L1024
	str	r2, [r3, #128]
	ldr	r2, [fp, #-16]
	ldr	r3, .L1024
	str	r2, [r3, #116]
	ldr	r2, [fp, #-16]
	ldr	r3, .L1024
	str	r2, [r3, #120]
	ldr	r3, .L1024
	ldr	r3, [r3, #60]
	add	r2, r3, #1
	ldr	r3, .L1024
	str	r2, [r3, #60]
	ldr	r3, .L1024
	ldr	r2, [r3, #100]
	ldr	r3, [fp, #-16]
	str	r3, [r2, #0]
	ldr	r3, .L1024
	ldr	r2, [r3, #100]
	ldr	r3, .L1024+8
	cmp	r2, r3
	bne	.L1021
	ldr	r3, .L1024
	ldr	r2, [r3, #468]
	ldr	r3, .L1024
	ldr	r3, [r3, #56]
	mov	r3, r3, asl #16
	mov	r3, r3, lsr #16
	add	r3, r2, r3
	ldrb	r3, [r3, #0]	@ zero_extendqisi2
	ldr	r2, .L1024
	strb	r3, [r2, #108]
.L1021:
	ldr	r3, .L1024
	ldr	r3, [r3, #72]
	bic	r2, r3, #4864
	ldr	r3, .L1024
	str	r2, [r3, #72]
	ldr	r2, .L1024
	ldr	r3, .L1024
	str	r3, [r2, #104]
	ldr	r3, .L1024
	ldr	r2, [r3, #104]
	ldr	r3, .L1024
	str	r2, [r3, #100]
	ldmib	sp, {fp, sp, pc}
.L1025:
	.align	2
.L1024:
	.word	GSU
	.word	65535
	.word	GSU+56
	.size	_Z9fx_adc_i6v, .-_Z9fx_adc_i6v
	.align	2
	.type	_Z9fx_adc_i7v, %function
_Z9fx_adc_i7v:
	@ args = 0, pretend = 0, frame = 4
	@ frame_needed = 1, uses_anonymous_args = 0
	mov	ip, sp
	stmfd	sp!, {fp, ip, lr, pc}
	sub	fp, ip, #4
	sub	sp, sp, #4
	ldr	r3, .L1030
	ldr	r3, [r3, #104]
	ldr	r3, [r3, #0]
	mov	r3, r3, asl #16
	mov	r3, r3, lsr #16
	add	r2, r3, #7
	ldr	r3, .L1030
	ldr	r3, [r3, #124]
	mov	r3, r3, asl #16
	mov	r3, r3, lsr #16
	add	r3, r2, r3
	str	r3, [fp, #-16]
	ldr	r2, [fp, #-16]
	ldr	r3, .L1030+4
	cmp	r2, r3
	movle	r2, #0
	movgt	r2, #1
	ldr	r3, .L1030
	str	r2, [r3, #124]
	ldr	r3, .L1030
	ldr	r3, [r3, #104]
	ldr	r2, [r3, #0]
	mvn	r3, #7
	eor	r2, r2, r3
	ldr	r3, [fp, #-16]
	eor	r3, r3, #7
	and	r3, r2, r3
	and	r2, r3, #32768
	ldr	r3, .L1030
	str	r2, [r3, #128]
	ldr	r2, [fp, #-16]
	ldr	r3, .L1030
	str	r2, [r3, #116]
	ldr	r2, [fp, #-16]
	ldr	r3, .L1030
	str	r2, [r3, #120]
	ldr	r3, .L1030
	ldr	r3, [r3, #60]
	add	r2, r3, #1
	ldr	r3, .L1030
	str	r2, [r3, #60]
	ldr	r3, .L1030
	ldr	r2, [r3, #100]
	ldr	r3, [fp, #-16]
	str	r3, [r2, #0]
	ldr	r3, .L1030
	ldr	r2, [r3, #100]
	ldr	r3, .L1030+8
	cmp	r2, r3
	bne	.L1027
	ldr	r3, .L1030
	ldr	r2, [r3, #468]
	ldr	r3, .L1030
	ldr	r3, [r3, #56]
	mov	r3, r3, asl #16
	mov	r3, r3, lsr #16
	add	r3, r2, r3
	ldrb	r3, [r3, #0]	@ zero_extendqisi2
	ldr	r2, .L1030
	strb	r3, [r2, #108]
.L1027:
	ldr	r3, .L1030
	ldr	r3, [r3, #72]
	bic	r2, r3, #4864
	ldr	r3, .L1030
	str	r2, [r3, #72]
	ldr	r2, .L1030
	ldr	r3, .L1030
	str	r3, [r2, #104]
	ldr	r3, .L1030
	ldr	r2, [r3, #104]
	ldr	r3, .L1030
	str	r2, [r3, #100]
	ldmib	sp, {fp, sp, pc}
.L1031:
	.align	2
.L1030:
	.word	GSU
	.word	65535
	.word	GSU+56
	.size	_Z9fx_adc_i7v, .-_Z9fx_adc_i7v
	.align	2
	.type	_Z9fx_adc_i8v, %function
_Z9fx_adc_i8v:
	@ args = 0, pretend = 0, frame = 4
	@ frame_needed = 1, uses_anonymous_args = 0
	mov	ip, sp
	stmfd	sp!, {fp, ip, lr, pc}
	sub	fp, ip, #4
	sub	sp, sp, #4
	ldr	r3, .L1036
	ldr	r3, [r3, #104]
	ldr	r3, [r3, #0]
	mov	r3, r3, asl #16
	mov	r3, r3, lsr #16
	add	r2, r3, #8
	ldr	r3, .L1036
	ldr	r3, [r3, #124]
	mov	r3, r3, asl #16
	mov	r3, r3, lsr #16
	add	r3, r2, r3
	str	r3, [fp, #-16]
	ldr	r2, [fp, #-16]
	ldr	r3, .L1036+4
	cmp	r2, r3
	movle	r2, #0
	movgt	r2, #1
	ldr	r3, .L1036
	str	r2, [r3, #124]
	ldr	r3, .L1036
	ldr	r3, [r3, #104]
	ldr	r2, [r3, #0]
	mvn	r3, #8
	eor	r2, r2, r3
	ldr	r3, [fp, #-16]
	eor	r3, r3, #8
	and	r3, r2, r3
	and	r2, r3, #32768
	ldr	r3, .L1036
	str	r2, [r3, #128]
	ldr	r2, [fp, #-16]
	ldr	r3, .L1036
	str	r2, [r3, #116]
	ldr	r2, [fp, #-16]
	ldr	r3, .L1036
	str	r2, [r3, #120]
	ldr	r3, .L1036
	ldr	r3, [r3, #60]
	add	r2, r3, #1
	ldr	r3, .L1036
	str	r2, [r3, #60]
	ldr	r3, .L1036
	ldr	r2, [r3, #100]
	ldr	r3, [fp, #-16]
	str	r3, [r2, #0]
	ldr	r3, .L1036
	ldr	r2, [r3, #100]
	ldr	r3, .L1036+8
	cmp	r2, r3
	bne	.L1033
	ldr	r3, .L1036
	ldr	r2, [r3, #468]
	ldr	r3, .L1036
	ldr	r3, [r3, #56]
	mov	r3, r3, asl #16
	mov	r3, r3, lsr #16
	add	r3, r2, r3
	ldrb	r3, [r3, #0]	@ zero_extendqisi2
	ldr	r2, .L1036
	strb	r3, [r2, #108]
.L1033:
	ldr	r3, .L1036
	ldr	r3, [r3, #72]
	bic	r2, r3, #4864
	ldr	r3, .L1036
	str	r2, [r3, #72]
	ldr	r2, .L1036
	ldr	r3, .L1036
	str	r3, [r2, #104]
	ldr	r3, .L1036
	ldr	r2, [r3, #104]
	ldr	r3, .L1036
	str	r2, [r3, #100]
	ldmib	sp, {fp, sp, pc}
.L1037:
	.align	2
.L1036:
	.word	GSU
	.word	65535
	.word	GSU+56
	.size	_Z9fx_adc_i8v, .-_Z9fx_adc_i8v
	.align	2
	.type	_Z9fx_adc_i9v, %function
_Z9fx_adc_i9v:
	@ args = 0, pretend = 0, frame = 4
	@ frame_needed = 1, uses_anonymous_args = 0
	mov	ip, sp
	stmfd	sp!, {fp, ip, lr, pc}
	sub	fp, ip, #4
	sub	sp, sp, #4
	ldr	r3, .L1042
	ldr	r3, [r3, #104]
	ldr	r3, [r3, #0]
	mov	r3, r3, asl #16
	mov	r3, r3, lsr #16
	add	r2, r3, #9
	ldr	r3, .L1042
	ldr	r3, [r3, #124]
	mov	r3, r3, asl #16
	mov	r3, r3, lsr #16
	add	r3, r2, r3
	str	r3, [fp, #-16]
	ldr	r2, [fp, #-16]
	ldr	r3, .L1042+4
	cmp	r2, r3
	movle	r2, #0
	movgt	r2, #1
	ldr	r3, .L1042
	str	r2, [r3, #124]
	ldr	r3, .L1042
	ldr	r3, [r3, #104]
	ldr	r2, [r3, #0]
	mvn	r3, #9
	eor	r2, r2, r3
	ldr	r3, [fp, #-16]
	eor	r3, r3, #9
	and	r3, r2, r3
	and	r2, r3, #32768
	ldr	r3, .L1042
	str	r2, [r3, #128]
	ldr	r2, [fp, #-16]
	ldr	r3, .L1042
	str	r2, [r3, #116]
	ldr	r2, [fp, #-16]
	ldr	r3, .L1042
	str	r2, [r3, #120]
	ldr	r3, .L1042
	ldr	r3, [r3, #60]
	add	r2, r3, #1
	ldr	r3, .L1042
	str	r2, [r3, #60]
	ldr	r3, .L1042
	ldr	r2, [r3, #100]
	ldr	r3, [fp, #-16]
	str	r3, [r2, #0]
	ldr	r3, .L1042
	ldr	r2, [r3, #100]
	ldr	r3, .L1042+8
	cmp	r2, r3
	bne	.L1039
	ldr	r3, .L1042
	ldr	r2, [r3, #468]
	ldr	r3, .L1042
	ldr	r3, [r3, #56]
	mov	r3, r3, asl #16
	mov	r3, r3, lsr #16
	add	r3, r2, r3
	ldrb	r3, [r3, #0]	@ zero_extendqisi2
	ldr	r2, .L1042
	strb	r3, [r2, #108]
.L1039:
	ldr	r3, .L1042
	ldr	r3, [r3, #72]
	bic	r2, r3, #4864
	ldr	r3, .L1042
	str	r2, [r3, #72]
	ldr	r2, .L1042
	ldr	r3, .L1042
	str	r3, [r2, #104]
	ldr	r3, .L1042
	ldr	r2, [r3, #104]
	ldr	r3, .L1042
	str	r2, [r3, #100]
	ldmib	sp, {fp, sp, pc}
.L1043:
	.align	2
.L1042:
	.word	GSU
	.word	65535
	.word	GSU+56
	.size	_Z9fx_adc_i9v, .-_Z9fx_adc_i9v
	.align	2
	.type	_Z10fx_adc_i10v, %function
_Z10fx_adc_i10v:
	@ args = 0, pretend = 0, frame = 4
	@ frame_needed = 1, uses_anonymous_args = 0
	mov	ip, sp
	stmfd	sp!, {fp, ip, lr, pc}
	sub	fp, ip, #4
	sub	sp, sp, #4
	ldr	r3, .L1048
	ldr	r3, [r3, #104]
	ldr	r3, [r3, #0]
	mov	r3, r3, asl #16
	mov	r3, r3, lsr #16
	add	r2, r3, #10
	ldr	r3, .L1048
	ldr	r3, [r3, #124]
	mov	r3, r3, asl #16
	mov	r3, r3, lsr #16
	add	r3, r2, r3
	str	r3, [fp, #-16]
	ldr	r2, [fp, #-16]
	ldr	r3, .L1048+4
	cmp	r2, r3
	movle	r2, #0
	movgt	r2, #1
	ldr	r3, .L1048
	str	r2, [r3, #124]
	ldr	r3, .L1048
	ldr	r3, [r3, #104]
	ldr	r2, [r3, #0]
	mvn	r3, #10
	eor	r2, r2, r3
	ldr	r3, [fp, #-16]
	eor	r3, r3, #10
	and	r3, r2, r3
	and	r2, r3, #32768
	ldr	r3, .L1048
	str	r2, [r3, #128]
	ldr	r2, [fp, #-16]
	ldr	r3, .L1048
	str	r2, [r3, #116]
	ldr	r2, [fp, #-16]
	ldr	r3, .L1048
	str	r2, [r3, #120]
	ldr	r3, .L1048
	ldr	r3, [r3, #60]
	add	r2, r3, #1
	ldr	r3, .L1048
	str	r2, [r3, #60]
	ldr	r3, .L1048
	ldr	r2, [r3, #100]
	ldr	r3, [fp, #-16]
	str	r3, [r2, #0]
	ldr	r3, .L1048
	ldr	r2, [r3, #100]
	ldr	r3, .L1048+8
	cmp	r2, r3
	bne	.L1045
	ldr	r3, .L1048
	ldr	r2, [r3, #468]
	ldr	r3, .L1048
	ldr	r3, [r3, #56]
	mov	r3, r3, asl #16
	mov	r3, r3, lsr #16
	add	r3, r2, r3
	ldrb	r3, [r3, #0]	@ zero_extendqisi2
	ldr	r2, .L1048
	strb	r3, [r2, #108]
.L1045:
	ldr	r3, .L1048
	ldr	r3, [r3, #72]
	bic	r2, r3, #4864
	ldr	r3, .L1048
	str	r2, [r3, #72]
	ldr	r2, .L1048
	ldr	r3, .L1048
	str	r3, [r2, #104]
	ldr	r3, .L1048
	ldr	r2, [r3, #104]
	ldr	r3, .L1048
	str	r2, [r3, #100]
	ldmib	sp, {fp, sp, pc}
.L1049:
	.align	2
.L1048:
	.word	GSU
	.word	65535
	.word	GSU+56
	.size	_Z10fx_adc_i10v, .-_Z10fx_adc_i10v
	.align	2
	.type	_Z10fx_adc_i11v, %function
_Z10fx_adc_i11v:
	@ args = 0, pretend = 0, frame = 4
	@ frame_needed = 1, uses_anonymous_args = 0
	mov	ip, sp
	stmfd	sp!, {fp, ip, lr, pc}
	sub	fp, ip, #4
	sub	sp, sp, #4
	ldr	r3, .L1054
	ldr	r3, [r3, #104]
	ldr	r3, [r3, #0]
	mov	r3, r3, asl #16
	mov	r3, r3, lsr #16
	add	r2, r3, #11
	ldr	r3, .L1054
	ldr	r3, [r3, #124]
	mov	r3, r3, asl #16
	mov	r3, r3, lsr #16
	add	r3, r2, r3
	str	r3, [fp, #-16]
	ldr	r2, [fp, #-16]
	ldr	r3, .L1054+4
	cmp	r2, r3
	movle	r2, #0
	movgt	r2, #1
	ldr	r3, .L1054
	str	r2, [r3, #124]
	ldr	r3, .L1054
	ldr	r3, [r3, #104]
	ldr	r2, [r3, #0]
	mvn	r3, #11
	eor	r2, r2, r3
	ldr	r3, [fp, #-16]
	eor	r3, r3, #11
	and	r3, r2, r3
	and	r2, r3, #32768
	ldr	r3, .L1054
	str	r2, [r3, #128]
	ldr	r2, [fp, #-16]
	ldr	r3, .L1054
	str	r2, [r3, #116]
	ldr	r2, [fp, #-16]
	ldr	r3, .L1054
	str	r2, [r3, #120]
	ldr	r3, .L1054
	ldr	r3, [r3, #60]
	add	r2, r3, #1
	ldr	r3, .L1054
	str	r2, [r3, #60]
	ldr	r3, .L1054
	ldr	r2, [r3, #100]
	ldr	r3, [fp, #-16]
	str	r3, [r2, #0]
	ldr	r3, .L1054
	ldr	r2, [r3, #100]
	ldr	r3, .L1054+8
	cmp	r2, r3
	bne	.L1051
	ldr	r3, .L1054
	ldr	r2, [r3, #468]
	ldr	r3, .L1054
	ldr	r3, [r3, #56]
	mov	r3, r3, asl #16
	mov	r3, r3, lsr #16
	add	r3, r2, r3
	ldrb	r3, [r3, #0]	@ zero_extendqisi2
	ldr	r2, .L1054
	strb	r3, [r2, #108]
.L1051:
	ldr	r3, .L1054
	ldr	r3, [r3, #72]
	bic	r2, r3, #4864
	ldr	r3, .L1054
	str	r2, [r3, #72]
	ldr	r2, .L1054
	ldr	r3, .L1054
	str	r3, [r2, #104]
	ldr	r3, .L1054
	ldr	r2, [r3, #104]
	ldr	r3, .L1054
	str	r2, [r3, #100]
	ldmib	sp, {fp, sp, pc}
.L1055:
	.align	2
.L1054:
	.word	GSU
	.word	65535
	.word	GSU+56
	.size	_Z10fx_adc_i11v, .-_Z10fx_adc_i11v
	.align	2
	.type	_Z10fx_adc_i12v, %function
_Z10fx_adc_i12v:
	@ args = 0, pretend = 0, frame = 4
	@ frame_needed = 1, uses_anonymous_args = 0
	mov	ip, sp
	stmfd	sp!, {fp, ip, lr, pc}
	sub	fp, ip, #4
	sub	sp, sp, #4
	ldr	r3, .L1060
	ldr	r3, [r3, #104]
	ldr	r3, [r3, #0]
	mov	r3, r3, asl #16
	mov	r3, r3, lsr #16
	add	r2, r3, #12
	ldr	r3, .L1060
	ldr	r3, [r3, #124]
	mov	r3, r3, asl #16
	mov	r3, r3, lsr #16
	add	r3, r2, r3
	str	r3, [fp, #-16]
	ldr	r2, [fp, #-16]
	ldr	r3, .L1060+4
	cmp	r2, r3
	movle	r2, #0
	movgt	r2, #1
	ldr	r3, .L1060
	str	r2, [r3, #124]
	ldr	r3, .L1060
	ldr	r3, [r3, #104]
	ldr	r2, [r3, #0]
	mvn	r3, #12
	eor	r2, r2, r3
	ldr	r3, [fp, #-16]
	eor	r3, r3, #12
	and	r3, r2, r3
	and	r2, r3, #32768
	ldr	r3, .L1060
	str	r2, [r3, #128]
	ldr	r2, [fp, #-16]
	ldr	r3, .L1060
	str	r2, [r3, #116]
	ldr	r2, [fp, #-16]
	ldr	r3, .L1060
	str	r2, [r3, #120]
	ldr	r3, .L1060
	ldr	r3, [r3, #60]
	add	r2, r3, #1
	ldr	r3, .L1060
	str	r2, [r3, #60]
	ldr	r3, .L1060
	ldr	r2, [r3, #100]
	ldr	r3, [fp, #-16]
	str	r3, [r2, #0]
	ldr	r3, .L1060
	ldr	r2, [r3, #100]
	ldr	r3, .L1060+8
	cmp	r2, r3
	bne	.L1057
	ldr	r3, .L1060
	ldr	r2, [r3, #468]
	ldr	r3, .L1060
	ldr	r3, [r3, #56]
	mov	r3, r3, asl #16
	mov	r3, r3, lsr #16
	add	r3, r2, r3
	ldrb	r3, [r3, #0]	@ zero_extendqisi2
	ldr	r2, .L1060
	strb	r3, [r2, #108]
.L1057:
	ldr	r3, .L1060
	ldr	r3, [r3, #72]
	bic	r2, r3, #4864
	ldr	r3, .L1060
	str	r2, [r3, #72]
	ldr	r2, .L1060
	ldr	r3, .L1060
	str	r3, [r2, #104]
	ldr	r3, .L1060
	ldr	r2, [r3, #104]
	ldr	r3, .L1060
	str	r2, [r3, #100]
	ldmib	sp, {fp, sp, pc}
.L1061:
	.align	2
.L1060:
	.word	GSU
	.word	65535
	.word	GSU+56
	.size	_Z10fx_adc_i12v, .-_Z10fx_adc_i12v
	.align	2
	.type	_Z10fx_adc_i13v, %function
_Z10fx_adc_i13v:
	@ args = 0, pretend = 0, frame = 4
	@ frame_needed = 1, uses_anonymous_args = 0
	mov	ip, sp
	stmfd	sp!, {fp, ip, lr, pc}
	sub	fp, ip, #4
	sub	sp, sp, #4
	ldr	r3, .L1066
	ldr	r3, [r3, #104]
	ldr	r3, [r3, #0]
	mov	r3, r3, asl #16
	mov	r3, r3, lsr #16
	add	r2, r3, #13
	ldr	r3, .L1066
	ldr	r3, [r3, #124]
	mov	r3, r3, asl #16
	mov	r3, r3, lsr #16
	add	r3, r2, r3
	str	r3, [fp, #-16]
	ldr	r2, [fp, #-16]
	ldr	r3, .L1066+4
	cmp	r2, r3
	movle	r2, #0
	movgt	r2, #1
	ldr	r3, .L1066
	str	r2, [r3, #124]
	ldr	r3, .L1066
	ldr	r3, [r3, #104]
	ldr	r2, [r3, #0]
	mvn	r3, #13
	eor	r2, r2, r3
	ldr	r3, [fp, #-16]
	eor	r3, r3, #13
	and	r3, r2, r3
	and	r2, r3, #32768
	ldr	r3, .L1066
	str	r2, [r3, #128]
	ldr	r2, [fp, #-16]
	ldr	r3, .L1066
	str	r2, [r3, #116]
	ldr	r2, [fp, #-16]
	ldr	r3, .L1066
	str	r2, [r3, #120]
	ldr	r3, .L1066
	ldr	r3, [r3, #60]
	add	r2, r3, #1
	ldr	r3, .L1066
	str	r2, [r3, #60]
	ldr	r3, .L1066
	ldr	r2, [r3, #100]
	ldr	r3, [fp, #-16]
	str	r3, [r2, #0]
	ldr	r3, .L1066
	ldr	r2, [r3, #100]
	ldr	r3, .L1066+8
	cmp	r2, r3
	bne	.L1063
	ldr	r3, .L1066
	ldr	r2, [r3, #468]
	ldr	r3, .L1066
	ldr	r3, [r3, #56]
	mov	r3, r3, asl #16
	mov	r3, r3, lsr #16
	add	r3, r2, r3
	ldrb	r3, [r3, #0]	@ zero_extendqisi2
	ldr	r2, .L1066
	strb	r3, [r2, #108]
.L1063:
	ldr	r3, .L1066
	ldr	r3, [r3, #72]
	bic	r2, r3, #4864
	ldr	r3, .L1066
	str	r2, [r3, #72]
	ldr	r2, .L1066
	ldr	r3, .L1066
	str	r3, [r2, #104]
	ldr	r3, .L1066
	ldr	r2, [r3, #104]
	ldr	r3, .L1066
	str	r2, [r3, #100]
	ldmib	sp, {fp, sp, pc}
.L1067:
	.align	2
.L1066:
	.word	GSU
	.word	65535
	.word	GSU+56
	.size	_Z10fx_adc_i13v, .-_Z10fx_adc_i13v
	.align	2
	.type	_Z10fx_adc_i14v, %function
_Z10fx_adc_i14v:
	@ args = 0, pretend = 0, frame = 4
	@ frame_needed = 1, uses_anonymous_args = 0
	mov	ip, sp
	stmfd	sp!, {fp, ip, lr, pc}
	sub	fp, ip, #4
	sub	sp, sp, #4
	ldr	r3, .L1072
	ldr	r3, [r3, #104]
	ldr	r3, [r3, #0]
	mov	r3, r3, asl #16
	mov	r3, r3, lsr #16
	add	r2, r3, #14
	ldr	r3, .L1072
	ldr	r3, [r3, #124]
	mov	r3, r3, asl #16
	mov	r3, r3, lsr #16
	add	r3, r2, r3
	str	r3, [fp, #-16]
	ldr	r2, [fp, #-16]
	ldr	r3, .L1072+4
	cmp	r2, r3
	movle	r2, #0
	movgt	r2, #1
	ldr	r3, .L1072
	str	r2, [r3, #124]
	ldr	r3, .L1072
	ldr	r3, [r3, #104]
	ldr	r2, [r3, #0]
	mvn	r3, #14
	eor	r2, r2, r3
	ldr	r3, [fp, #-16]
	eor	r3, r3, #14
	and	r3, r2, r3
	and	r2, r3, #32768
	ldr	r3, .L1072
	str	r2, [r3, #128]
	ldr	r2, [fp, #-16]
	ldr	r3, .L1072
	str	r2, [r3, #116]
	ldr	r2, [fp, #-16]
	ldr	r3, .L1072
	str	r2, [r3, #120]
	ldr	r3, .L1072
	ldr	r3, [r3, #60]
	add	r2, r3, #1
	ldr	r3, .L1072
	str	r2, [r3, #60]
	ldr	r3, .L1072
	ldr	r2, [r3, #100]
	ldr	r3, [fp, #-16]
	str	r3, [r2, #0]
	ldr	r3, .L1072
	ldr	r2, [r3, #100]
	ldr	r3, .L1072+8
	cmp	r2, r3
	bne	.L1069
	ldr	r3, .L1072
	ldr	r2, [r3, #468]
	ldr	r3, .L1072
	ldr	r3, [r3, #56]
	mov	r3, r3, asl #16
	mov	r3, r3, lsr #16
	add	r3, r2, r3
	ldrb	r3, [r3, #0]	@ zero_extendqisi2
	ldr	r2, .L1072
	strb	r3, [r2, #108]
.L1069:
	ldr	r3, .L1072
	ldr	r3, [r3, #72]
	bic	r2, r3, #4864
	ldr	r3, .L1072
	str	r2, [r3, #72]
	ldr	r2, .L1072
	ldr	r3, .L1072
	str	r3, [r2, #104]
	ldr	r3, .L1072
	ldr	r2, [r3, #104]
	ldr	r3, .L1072
	str	r2, [r3, #100]
	ldmib	sp, {fp, sp, pc}
.L1073:
	.align	2
.L1072:
	.word	GSU
	.word	65535
	.word	GSU+56
	.size	_Z10fx_adc_i14v, .-_Z10fx_adc_i14v
	.align	2
	.type	_Z10fx_adc_i15v, %function
_Z10fx_adc_i15v:
	@ args = 0, pretend = 0, frame = 4
	@ frame_needed = 1, uses_anonymous_args = 0
	mov	ip, sp
	stmfd	sp!, {fp, ip, lr, pc}
	sub	fp, ip, #4
	sub	sp, sp, #4
	ldr	r3, .L1078
	ldr	r3, [r3, #104]
	ldr	r3, [r3, #0]
	mov	r3, r3, asl #16
	mov	r3, r3, lsr #16
	add	r2, r3, #15
	ldr	r3, .L1078
	ldr	r3, [r3, #124]
	mov	r3, r3, asl #16
	mov	r3, r3, lsr #16
	add	r3, r2, r3
	str	r3, [fp, #-16]
	ldr	r2, [fp, #-16]
	ldr	r3, .L1078+4
	cmp	r2, r3
	movle	r2, #0
	movgt	r2, #1
	ldr	r3, .L1078
	str	r2, [r3, #124]
	ldr	r3, .L1078
	ldr	r3, [r3, #104]
	ldr	r2, [r3, #0]
	mvn	r3, #15
	eor	r2, r2, r3
	ldr	r3, [fp, #-16]
	eor	r3, r3, #15
	and	r3, r2, r3
	and	r2, r3, #32768
	ldr	r3, .L1078
	str	r2, [r3, #128]
	ldr	r2, [fp, #-16]
	ldr	r3, .L1078
	str	r2, [r3, #116]
	ldr	r2, [fp, #-16]
	ldr	r3, .L1078
	str	r2, [r3, #120]
	ldr	r3, .L1078
	ldr	r3, [r3, #60]
	add	r2, r3, #1
	ldr	r3, .L1078
	str	r2, [r3, #60]
	ldr	r3, .L1078
	ldr	r2, [r3, #100]
	ldr	r3, [fp, #-16]
	str	r3, [r2, #0]
	ldr	r3, .L1078
	ldr	r2, [r3, #100]
	ldr	r3, .L1078+8
	cmp	r2, r3
	bne	.L1075
	ldr	r3, .L1078
	ldr	r2, [r3, #468]
	ldr	r3, .L1078
	ldr	r3, [r3, #56]
	mov	r3, r3, asl #16
	mov	r3, r3, lsr #16
	add	r3, r2, r3
	ldrb	r3, [r3, #0]	@ zero_extendqisi2
	ldr	r2, .L1078
	strb	r3, [r2, #108]
.L1075:
	ldr	r3, .L1078
	ldr	r3, [r3, #72]
	bic	r2, r3, #4864
	ldr	r3, .L1078
	str	r2, [r3, #72]
	ldr	r2, .L1078
	ldr	r3, .L1078
	str	r3, [r2, #104]
	ldr	r3, .L1078
	ldr	r2, [r3, #104]
	ldr	r3, .L1078
	str	r2, [r3, #100]
	ldmib	sp, {fp, sp, pc}
.L1079:
	.align	2
.L1078:
	.word	GSU
	.word	65535
	.word	GSU+56
	.size	_Z10fx_adc_i15v, .-_Z10fx_adc_i15v
	.align	2
	.type	_Z9fx_sub_r0v, %function
_Z9fx_sub_r0v:
	@ args = 0, pretend = 0, frame = 4
	@ frame_needed = 1, uses_anonymous_args = 0
	mov	ip, sp
	stmfd	sp!, {fp, ip, lr, pc}
	sub	fp, ip, #4
	sub	sp, sp, #4
	ldr	r3, .L1084
	ldr	r3, [r3, #104]
	ldr	r3, [r3, #0]
	mov	r3, r3, asl #16
	mov	r3, r3, lsr #16
	mov	r2, r3
	ldr	r3, .L1084
	ldr	r3, [r3, #0]
	mov	r3, r3, asl #16
	mov	r3, r3, lsr #16
	rsb	r3, r3, r2
	str	r3, [fp, #-16]
	ldr	r3, [fp, #-16]
	mvn	r3, r3
	mov	r2, r3, lsr #31
	ldr	r3, .L1084
	str	r2, [r3, #124]
	ldr	r3, .L1084
	ldr	r3, [r3, #104]
	ldr	r2, [r3, #0]
	ldr	r3, .L1084
	ldr	r3, [r3, #0]
	eor	r1, r2, r3
	ldr	r3, .L1084
	ldr	r3, [r3, #104]
	ldr	r2, [r3, #0]
	ldr	r3, [fp, #-16]
	eor	r3, r2, r3
	and	r3, r1, r3
	and	r2, r3, #32768
	ldr	r3, .L1084
	str	r2, [r3, #128]
	ldr	r2, [fp, #-16]
	ldr	r3, .L1084
	str	r2, [r3, #116]
	ldr	r2, [fp, #-16]
	ldr	r3, .L1084
	str	r2, [r3, #120]
	ldr	r3, .L1084
	ldr	r3, [r3, #60]
	add	r2, r3, #1
	ldr	r3, .L1084
	str	r2, [r3, #60]
	ldr	r3, .L1084
	ldr	r2, [r3, #100]
	ldr	r3, [fp, #-16]
	str	r3, [r2, #0]
	ldr	r3, .L1084
	ldr	r2, [r3, #100]
	ldr	r3, .L1084+4
	cmp	r2, r3
	bne	.L1081
	ldr	r3, .L1084
	ldr	r2, [r3, #468]
	ldr	r3, .L1084
	ldr	r3, [r3, #56]
	mov	r3, r3, asl #16
	mov	r3, r3, lsr #16
	add	r3, r2, r3
	ldrb	r3, [r3, #0]	@ zero_extendqisi2
	ldr	r2, .L1084
	strb	r3, [r2, #108]
.L1081:
	ldr	r3, .L1084
	ldr	r3, [r3, #72]
	bic	r2, r3, #4864
	ldr	r3, .L1084
	str	r2, [r3, #72]
	ldr	r2, .L1084
	ldr	r3, .L1084
	str	r3, [r2, #104]
	ldr	r3, .L1084
	ldr	r2, [r3, #104]
	ldr	r3, .L1084
	str	r2, [r3, #100]
	ldmib	sp, {fp, sp, pc}
.L1085:
	.align	2
.L1084:
	.word	GSU
	.word	GSU+56
	.size	_Z9fx_sub_r0v, .-_Z9fx_sub_r0v
	.align	2
	.type	_Z9fx_sub_r1v, %function
_Z9fx_sub_r1v:
	@ args = 0, pretend = 0, frame = 4
	@ frame_needed = 1, uses_anonymous_args = 0
	mov	ip, sp
	stmfd	sp!, {fp, ip, lr, pc}
	sub	fp, ip, #4
	sub	sp, sp, #4
	ldr	r3, .L1090
	ldr	r3, [r3, #104]
	ldr	r3, [r3, #0]
	mov	r3, r3, asl #16
	mov	r3, r3, lsr #16
	mov	r2, r3
	ldr	r3, .L1090
	ldr	r3, [r3, #4]
	mov	r3, r3, asl #16
	mov	r3, r3, lsr #16
	rsb	r3, r3, r2
	str	r3, [fp, #-16]
	ldr	r3, [fp, #-16]
	mvn	r3, r3
	mov	r2, r3, lsr #31
	ldr	r3, .L1090
	str	r2, [r3, #124]
	ldr	r3, .L1090
	ldr	r3, [r3, #104]
	ldr	r2, [r3, #0]
	ldr	r3, .L1090
	ldr	r3, [r3, #4]
	eor	r1, r2, r3
	ldr	r3, .L1090
	ldr	r3, [r3, #104]
	ldr	r2, [r3, #0]
	ldr	r3, [fp, #-16]
	eor	r3, r2, r3
	and	r3, r1, r3
	and	r2, r3, #32768
	ldr	r3, .L1090
	str	r2, [r3, #128]
	ldr	r2, [fp, #-16]
	ldr	r3, .L1090
	str	r2, [r3, #116]
	ldr	r2, [fp, #-16]
	ldr	r3, .L1090
	str	r2, [r3, #120]
	ldr	r3, .L1090
	ldr	r3, [r3, #60]
	add	r2, r3, #1
	ldr	r3, .L1090
	str	r2, [r3, #60]
	ldr	r3, .L1090
	ldr	r2, [r3, #100]
	ldr	r3, [fp, #-16]
	str	r3, [r2, #0]
	ldr	r3, .L1090
	ldr	r2, [r3, #100]
	ldr	r3, .L1090+4
	cmp	r2, r3
	bne	.L1087
	ldr	r3, .L1090
	ldr	r2, [r3, #468]
	ldr	r3, .L1090
	ldr	r3, [r3, #56]
	mov	r3, r3, asl #16
	mov	r3, r3, lsr #16
	add	r3, r2, r3
	ldrb	r3, [r3, #0]	@ zero_extendqisi2
	ldr	r2, .L1090
	strb	r3, [r2, #108]
.L1087:
	ldr	r3, .L1090
	ldr	r3, [r3, #72]
	bic	r2, r3, #4864
	ldr	r3, .L1090
	str	r2, [r3, #72]
	ldr	r2, .L1090
	ldr	r3, .L1090
	str	r3, [r2, #104]
	ldr	r3, .L1090
	ldr	r2, [r3, #104]
	ldr	r3, .L1090
	str	r2, [r3, #100]
	ldmib	sp, {fp, sp, pc}
.L1091:
	.align	2
.L1090:
	.word	GSU
	.word	GSU+56
	.size	_Z9fx_sub_r1v, .-_Z9fx_sub_r1v
	.align	2
	.type	_Z9fx_sub_r2v, %function
_Z9fx_sub_r2v:
	@ args = 0, pretend = 0, frame = 4
	@ frame_needed = 1, uses_anonymous_args = 0
	mov	ip, sp
	stmfd	sp!, {fp, ip, lr, pc}
	sub	fp, ip, #4
	sub	sp, sp, #4
	ldr	r3, .L1096
	ldr	r3, [r3, #104]
	ldr	r3, [r3, #0]
	mov	r3, r3, asl #16
	mov	r3, r3, lsr #16
	mov	r2, r3
	ldr	r3, .L1096
	ldr	r3, [r3, #8]
	mov	r3, r3, asl #16
	mov	r3, r3, lsr #16
	rsb	r3, r3, r2
	str	r3, [fp, #-16]
	ldr	r3, [fp, #-16]
	mvn	r3, r3
	mov	r2, r3, lsr #31
	ldr	r3, .L1096
	str	r2, [r3, #124]
	ldr	r3, .L1096
	ldr	r3, [r3, #104]
	ldr	r2, [r3, #0]
	ldr	r3, .L1096
	ldr	r3, [r3, #8]
	eor	r1, r2, r3
	ldr	r3, .L1096
	ldr	r3, [r3, #104]
	ldr	r2, [r3, #0]
	ldr	r3, [fp, #-16]
	eor	r3, r2, r3
	and	r3, r1, r3
	and	r2, r3, #32768
	ldr	r3, .L1096
	str	r2, [r3, #128]
	ldr	r2, [fp, #-16]
	ldr	r3, .L1096
	str	r2, [r3, #116]
	ldr	r2, [fp, #-16]
	ldr	r3, .L1096
	str	r2, [r3, #120]
	ldr	r3, .L1096
	ldr	r3, [r3, #60]
	add	r2, r3, #1
	ldr	r3, .L1096
	str	r2, [r3, #60]
	ldr	r3, .L1096
	ldr	r2, [r3, #100]
	ldr	r3, [fp, #-16]
	str	r3, [r2, #0]
	ldr	r3, .L1096
	ldr	r2, [r3, #100]
	ldr	r3, .L1096+4
	cmp	r2, r3
	bne	.L1093
	ldr	r3, .L1096
	ldr	r2, [r3, #468]
	ldr	r3, .L1096
	ldr	r3, [r3, #56]
	mov	r3, r3, asl #16
	mov	r3, r3, lsr #16
	add	r3, r2, r3
	ldrb	r3, [r3, #0]	@ zero_extendqisi2
	ldr	r2, .L1096
	strb	r3, [r2, #108]
.L1093:
	ldr	r3, .L1096
	ldr	r3, [r3, #72]
	bic	r2, r3, #4864
	ldr	r3, .L1096
	str	r2, [r3, #72]
	ldr	r2, .L1096
	ldr	r3, .L1096
	str	r3, [r2, #104]
	ldr	r3, .L1096
	ldr	r2, [r3, #104]
	ldr	r3, .L1096
	str	r2, [r3, #100]
	ldmib	sp, {fp, sp, pc}
.L1097:
	.align	2
.L1096:
	.word	GSU
	.word	GSU+56
	.size	_Z9fx_sub_r2v, .-_Z9fx_sub_r2v
	.align	2
	.type	_Z9fx_sub_r3v, %function
_Z9fx_sub_r3v:
	@ args = 0, pretend = 0, frame = 4
	@ frame_needed = 1, uses_anonymous_args = 0
	mov	ip, sp
	stmfd	sp!, {fp, ip, lr, pc}
	sub	fp, ip, #4
	sub	sp, sp, #4
	ldr	r3, .L1102
	ldr	r3, [r3, #104]
	ldr	r3, [r3, #0]
	mov	r3, r3, asl #16
	mov	r3, r3, lsr #16
	mov	r2, r3
	ldr	r3, .L1102
	ldr	r3, [r3, #12]
	mov	r3, r3, asl #16
	mov	r3, r3, lsr #16
	rsb	r3, r3, r2
	str	r3, [fp, #-16]
	ldr	r3, [fp, #-16]
	mvn	r3, r3
	mov	r2, r3, lsr #31
	ldr	r3, .L1102
	str	r2, [r3, #124]
	ldr	r3, .L1102
	ldr	r3, [r3, #104]
	ldr	r2, [r3, #0]
	ldr	r3, .L1102
	ldr	r3, [r3, #12]
	eor	r1, r2, r3
	ldr	r3, .L1102
	ldr	r3, [r3, #104]
	ldr	r2, [r3, #0]
	ldr	r3, [fp, #-16]
	eor	r3, r2, r3
	and	r3, r1, r3
	and	r2, r3, #32768
	ldr	r3, .L1102
	str	r2, [r3, #128]
	ldr	r2, [fp, #-16]
	ldr	r3, .L1102
	str	r2, [r3, #116]
	ldr	r2, [fp, #-16]
	ldr	r3, .L1102
	str	r2, [r3, #120]
	ldr	r3, .L1102
	ldr	r3, [r3, #60]
	add	r2, r3, #1
	ldr	r3, .L1102
	str	r2, [r3, #60]
	ldr	r3, .L1102
	ldr	r2, [r3, #100]
	ldr	r3, [fp, #-16]
	str	r3, [r2, #0]
	ldr	r3, .L1102
	ldr	r2, [r3, #100]
	ldr	r3, .L1102+4
	cmp	r2, r3
	bne	.L1099
	ldr	r3, .L1102
	ldr	r2, [r3, #468]
	ldr	r3, .L1102
	ldr	r3, [r3, #56]
	mov	r3, r3, asl #16
	mov	r3, r3, lsr #16
	add	r3, r2, r3
	ldrb	r3, [r3, #0]	@ zero_extendqisi2
	ldr	r2, .L1102
	strb	r3, [r2, #108]
.L1099:
	ldr	r3, .L1102
	ldr	r3, [r3, #72]
	bic	r2, r3, #4864
	ldr	r3, .L1102
	str	r2, [r3, #72]
	ldr	r2, .L1102
	ldr	r3, .L1102
	str	r3, [r2, #104]
	ldr	r3, .L1102
	ldr	r2, [r3, #104]
	ldr	r3, .L1102
	str	r2, [r3, #100]
	ldmib	sp, {fp, sp, pc}
.L1103:
	.align	2
.L1102:
	.word	GSU
	.word	GSU+56
	.size	_Z9fx_sub_r3v, .-_Z9fx_sub_r3v
	.align	2
	.type	_Z9fx_sub_r4v, %function
_Z9fx_sub_r4v:
	@ args = 0, pretend = 0, frame = 4
	@ frame_needed = 1, uses_anonymous_args = 0
	mov	ip, sp
	stmfd	sp!, {fp, ip, lr, pc}
	sub	fp, ip, #4
	sub	sp, sp, #4
	ldr	r3, .L1108
	ldr	r3, [r3, #104]
	ldr	r3, [r3, #0]
	mov	r3, r3, asl #16
	mov	r3, r3, lsr #16
	mov	r2, r3
	ldr	r3, .L1108
	ldr	r3, [r3, #16]
	mov	r3, r3, asl #16
	mov	r3, r3, lsr #16
	rsb	r3, r3, r2
	str	r3, [fp, #-16]
	ldr	r3, [fp, #-16]
	mvn	r3, r3
	mov	r2, r3, lsr #31
	ldr	r3, .L1108
	str	r2, [r3, #124]
	ldr	r3, .L1108
	ldr	r3, [r3, #104]
	ldr	r2, [r3, #0]
	ldr	r3, .L1108
	ldr	r3, [r3, #16]
	eor	r1, r2, r3
	ldr	r3, .L1108
	ldr	r3, [r3, #104]
	ldr	r2, [r3, #0]
	ldr	r3, [fp, #-16]
	eor	r3, r2, r3
	and	r3, r1, r3
	and	r2, r3, #32768
	ldr	r3, .L1108
	str	r2, [r3, #128]
	ldr	r2, [fp, #-16]
	ldr	r3, .L1108
	str	r2, [r3, #116]
	ldr	r2, [fp, #-16]
	ldr	r3, .L1108
	str	r2, [r3, #120]
	ldr	r3, .L1108
	ldr	r3, [r3, #60]
	add	r2, r3, #1
	ldr	r3, .L1108
	str	r2, [r3, #60]
	ldr	r3, .L1108
	ldr	r2, [r3, #100]
	ldr	r3, [fp, #-16]
	str	r3, [r2, #0]
	ldr	r3, .L1108
	ldr	r2, [r3, #100]
	ldr	r3, .L1108+4
	cmp	r2, r3
	bne	.L1105
	ldr	r3, .L1108
	ldr	r2, [r3, #468]
	ldr	r3, .L1108
	ldr	r3, [r3, #56]
	mov	r3, r3, asl #16
	mov	r3, r3, lsr #16
	add	r3, r2, r3
	ldrb	r3, [r3, #0]	@ zero_extendqisi2
	ldr	r2, .L1108
	strb	r3, [r2, #108]
.L1105:
	ldr	r3, .L1108
	ldr	r3, [r3, #72]
	bic	r2, r3, #4864
	ldr	r3, .L1108
	str	r2, [r3, #72]
	ldr	r2, .L1108
	ldr	r3, .L1108
	str	r3, [r2, #104]
	ldr	r3, .L1108
	ldr	r2, [r3, #104]
	ldr	r3, .L1108
	str	r2, [r3, #100]
	ldmib	sp, {fp, sp, pc}
.L1109:
	.align	2
.L1108:
	.word	GSU
	.word	GSU+56
	.size	_Z9fx_sub_r4v, .-_Z9fx_sub_r4v
	.align	2
	.type	_Z9fx_sub_r5v, %function
_Z9fx_sub_r5v:
	@ args = 0, pretend = 0, frame = 4
	@ frame_needed = 1, uses_anonymous_args = 0
	mov	ip, sp
	stmfd	sp!, {fp, ip, lr, pc}
	sub	fp, ip, #4
	sub	sp, sp, #4
	ldr	r3, .L1114
	ldr	r3, [r3, #104]
	ldr	r3, [r3, #0]
	mov	r3, r3, asl #16
	mov	r3, r3, lsr #16
	mov	r2, r3
	ldr	r3, .L1114
	ldr	r3, [r3, #20]
	mov	r3, r3, asl #16
	mov	r3, r3, lsr #16
	rsb	r3, r3, r2
	str	r3, [fp, #-16]
	ldr	r3, [fp, #-16]
	mvn	r3, r3
	mov	r2, r3, lsr #31
	ldr	r3, .L1114
	str	r2, [r3, #124]
	ldr	r3, .L1114
	ldr	r3, [r3, #104]
	ldr	r2, [r3, #0]
	ldr	r3, .L1114
	ldr	r3, [r3, #20]
	eor	r1, r2, r3
	ldr	r3, .L1114
	ldr	r3, [r3, #104]
	ldr	r2, [r3, #0]
	ldr	r3, [fp, #-16]
	eor	r3, r2, r3
	and	r3, r1, r3
	and	r2, r3, #32768
	ldr	r3, .L1114
	str	r2, [r3, #128]
	ldr	r2, [fp, #-16]
	ldr	r3, .L1114
	str	r2, [r3, #116]
	ldr	r2, [fp, #-16]
	ldr	r3, .L1114
	str	r2, [r3, #120]
	ldr	r3, .L1114
	ldr	r3, [r3, #60]
	add	r2, r3, #1
	ldr	r3, .L1114
	str	r2, [r3, #60]
	ldr	r3, .L1114
	ldr	r2, [r3, #100]
	ldr	r3, [fp, #-16]
	str	r3, [r2, #0]
	ldr	r3, .L1114
	ldr	r2, [r3, #100]
	ldr	r3, .L1114+4
	cmp	r2, r3
	bne	.L1111
	ldr	r3, .L1114
	ldr	r2, [r3, #468]
	ldr	r3, .L1114
	ldr	r3, [r3, #56]
	mov	r3, r3, asl #16
	mov	r3, r3, lsr #16
	add	r3, r2, r3
	ldrb	r3, [r3, #0]	@ zero_extendqisi2
	ldr	r2, .L1114
	strb	r3, [r2, #108]
.L1111:
	ldr	r3, .L1114
	ldr	r3, [r3, #72]
	bic	r2, r3, #4864
	ldr	r3, .L1114
	str	r2, [r3, #72]
	ldr	r2, .L1114
	ldr	r3, .L1114
	str	r3, [r2, #104]
	ldr	r3, .L1114
	ldr	r2, [r3, #104]
	ldr	r3, .L1114
	str	r2, [r3, #100]
	ldmib	sp, {fp, sp, pc}
.L1115:
	.align	2
.L1114:
	.word	GSU
	.word	GSU+56
	.size	_Z9fx_sub_r5v, .-_Z9fx_sub_r5v
	.align	2
	.type	_Z9fx_sub_r6v, %function
_Z9fx_sub_r6v:
	@ args = 0, pretend = 0, frame = 4
	@ frame_needed = 1, uses_anonymous_args = 0
	mov	ip, sp
	stmfd	sp!, {fp, ip, lr, pc}
	sub	fp, ip, #4
	sub	sp, sp, #4
	ldr	r3, .L1120
	ldr	r3, [r3, #104]
	ldr	r3, [r3, #0]
	mov	r3, r3, asl #16
	mov	r3, r3, lsr #16
	mov	r2, r3
	ldr	r3, .L1120
	ldr	r3, [r3, #24]
	mov	r3, r3, asl #16
	mov	r3, r3, lsr #16
	rsb	r3, r3, r2
	str	r3, [fp, #-16]
	ldr	r3, [fp, #-16]
	mvn	r3, r3
	mov	r2, r3, lsr #31
	ldr	r3, .L1120
	str	r2, [r3, #124]
	ldr	r3, .L1120
	ldr	r3, [r3, #104]
	ldr	r2, [r3, #0]
	ldr	r3, .L1120
	ldr	r3, [r3, #24]
	eor	r1, r2, r3
	ldr	r3, .L1120
	ldr	r3, [r3, #104]
	ldr	r2, [r3, #0]
	ldr	r3, [fp, #-16]
	eor	r3, r2, r3
	and	r3, r1, r3
	and	r2, r3, #32768
	ldr	r3, .L1120
	str	r2, [r3, #128]
	ldr	r2, [fp, #-16]
	ldr	r3, .L1120
	str	r2, [r3, #116]
	ldr	r2, [fp, #-16]
	ldr	r3, .L1120
	str	r2, [r3, #120]
	ldr	r3, .L1120
	ldr	r3, [r3, #60]
	add	r2, r3, #1
	ldr	r3, .L1120
	str	r2, [r3, #60]
	ldr	r3, .L1120
	ldr	r2, [r3, #100]
	ldr	r3, [fp, #-16]
	str	r3, [r2, #0]
	ldr	r3, .L1120
	ldr	r2, [r3, #100]
	ldr	r3, .L1120+4
	cmp	r2, r3
	bne	.L1117
	ldr	r3, .L1120
	ldr	r2, [r3, #468]
	ldr	r3, .L1120
	ldr	r3, [r3, #56]
	mov	r3, r3, asl #16
	mov	r3, r3, lsr #16
	add	r3, r2, r3
	ldrb	r3, [r3, #0]	@ zero_extendqisi2
	ldr	r2, .L1120
	strb	r3, [r2, #108]
.L1117:
	ldr	r3, .L1120
	ldr	r3, [r3, #72]
	bic	r2, r3, #4864
	ldr	r3, .L1120
	str	r2, [r3, #72]
	ldr	r2, .L1120
	ldr	r3, .L1120
	str	r3, [r2, #104]
	ldr	r3, .L1120
	ldr	r2, [r3, #104]
	ldr	r3, .L1120
	str	r2, [r3, #100]
	ldmib	sp, {fp, sp, pc}
.L1121:
	.align	2
.L1120:
	.word	GSU
	.word	GSU+56
	.size	_Z9fx_sub_r6v, .-_Z9fx_sub_r6v
	.align	2
	.type	_Z9fx_sub_r7v, %function
_Z9fx_sub_r7v:
	@ args = 0, pretend = 0, frame = 4
	@ frame_needed = 1, uses_anonymous_args = 0
	mov	ip, sp
	stmfd	sp!, {fp, ip, lr, pc}
	sub	fp, ip, #4
	sub	sp, sp, #4
	ldr	r3, .L1126
	ldr	r3, [r3, #104]
	ldr	r3, [r3, #0]
	mov	r3, r3, asl #16
	mov	r3, r3, lsr #16
	mov	r2, r3
	ldr	r3, .L1126
	ldr	r3, [r3, #28]
	mov	r3, r3, asl #16
	mov	r3, r3, lsr #16
	rsb	r3, r3, r2
	str	r3, [fp, #-16]
	ldr	r3, [fp, #-16]
	mvn	r3, r3
	mov	r2, r3, lsr #31
	ldr	r3, .L1126
	str	r2, [r3, #124]
	ldr	r3, .L1126
	ldr	r3, [r3, #104]
	ldr	r2, [r3, #0]
	ldr	r3, .L1126
	ldr	r3, [r3, #28]
	eor	r1, r2, r3
	ldr	r3, .L1126
	ldr	r3, [r3, #104]
	ldr	r2, [r3, #0]
	ldr	r3, [fp, #-16]
	eor	r3, r2, r3
	and	r3, r1, r3
	and	r2, r3, #32768
	ldr	r3, .L1126
	str	r2, [r3, #128]
	ldr	r2, [fp, #-16]
	ldr	r3, .L1126
	str	r2, [r3, #116]
	ldr	r2, [fp, #-16]
	ldr	r3, .L1126
	str	r2, [r3, #120]
	ldr	r3, .L1126
	ldr	r3, [r3, #60]
	add	r2, r3, #1
	ldr	r3, .L1126
	str	r2, [r3, #60]
	ldr	r3, .L1126
	ldr	r2, [r3, #100]
	ldr	r3, [fp, #-16]
	str	r3, [r2, #0]
	ldr	r3, .L1126
	ldr	r2, [r3, #100]
	ldr	r3, .L1126+4
	cmp	r2, r3
	bne	.L1123
	ldr	r3, .L1126
	ldr	r2, [r3, #468]
	ldr	r3, .L1126
	ldr	r3, [r3, #56]
	mov	r3, r3, asl #16
	mov	r3, r3, lsr #16
	add	r3, r2, r3
	ldrb	r3, [r3, #0]	@ zero_extendqisi2
	ldr	r2, .L1126
	strb	r3, [r2, #108]
.L1123:
	ldr	r3, .L1126
	ldr	r3, [r3, #72]
	bic	r2, r3, #4864
	ldr	r3, .L1126
	str	r2, [r3, #72]
	ldr	r2, .L1126
	ldr	r3, .L1126
	str	r3, [r2, #104]
	ldr	r3, .L1126
	ldr	r2, [r3, #104]
	ldr	r3, .L1126
	str	r2, [r3, #100]
	ldmib	sp, {fp, sp, pc}
.L1127:
	.align	2
.L1126:
	.word	GSU
	.word	GSU+56
	.size	_Z9fx_sub_r7v, .-_Z9fx_sub_r7v
	.align	2
	.type	_Z9fx_sub_r8v, %function
_Z9fx_sub_r8v:
	@ args = 0, pretend = 0, frame = 4
	@ frame_needed = 1, uses_anonymous_args = 0
	mov	ip, sp
	stmfd	sp!, {fp, ip, lr, pc}
	sub	fp, ip, #4
	sub	sp, sp, #4
	ldr	r3, .L1132
	ldr	r3, [r3, #104]
	ldr	r3, [r3, #0]
	mov	r3, r3, asl #16
	mov	r3, r3, lsr #16
	mov	r2, r3
	ldr	r3, .L1132
	ldr	r3, [r3, #32]
	mov	r3, r3, asl #16
	mov	r3, r3, lsr #16
	rsb	r3, r3, r2
	str	r3, [fp, #-16]
	ldr	r3, [fp, #-16]
	mvn	r3, r3
	mov	r2, r3, lsr #31
	ldr	r3, .L1132
	str	r2, [r3, #124]
	ldr	r3, .L1132
	ldr	r3, [r3, #104]
	ldr	r2, [r3, #0]
	ldr	r3, .L1132
	ldr	r3, [r3, #32]
	eor	r1, r2, r3
	ldr	r3, .L1132
	ldr	r3, [r3, #104]
	ldr	r2, [r3, #0]
	ldr	r3, [fp, #-16]
	eor	r3, r2, r3
	and	r3, r1, r3
	and	r2, r3, #32768
	ldr	r3, .L1132
	str	r2, [r3, #128]
	ldr	r2, [fp, #-16]
	ldr	r3, .L1132
	str	r2, [r3, #116]
	ldr	r2, [fp, #-16]
	ldr	r3, .L1132
	str	r2, [r3, #120]
	ldr	r3, .L1132
	ldr	r3, [r3, #60]
	add	r2, r3, #1
	ldr	r3, .L1132
	str	r2, [r3, #60]
	ldr	r3, .L1132
	ldr	r2, [r3, #100]
	ldr	r3, [fp, #-16]
	str	r3, [r2, #0]
	ldr	r3, .L1132
	ldr	r2, [r3, #100]
	ldr	r3, .L1132+4
	cmp	r2, r3
	bne	.L1129
	ldr	r3, .L1132
	ldr	r2, [r3, #468]
	ldr	r3, .L1132
	ldr	r3, [r3, #56]
	mov	r3, r3, asl #16
	mov	r3, r3, lsr #16
	add	r3, r2, r3
	ldrb	r3, [r3, #0]	@ zero_extendqisi2
	ldr	r2, .L1132
	strb	r3, [r2, #108]
.L1129:
	ldr	r3, .L1132
	ldr	r3, [r3, #72]
	bic	r2, r3, #4864
	ldr	r3, .L1132
	str	r2, [r3, #72]
	ldr	r2, .L1132
	ldr	r3, .L1132
	str	r3, [r2, #104]
	ldr	r3, .L1132
	ldr	r2, [r3, #104]
	ldr	r3, .L1132
	str	r2, [r3, #100]
	ldmib	sp, {fp, sp, pc}
.L1133:
	.align	2
.L1132:
	.word	GSU
	.word	GSU+56
	.size	_Z9fx_sub_r8v, .-_Z9fx_sub_r8v
	.align	2
	.type	_Z9fx_sub_r9v, %function
_Z9fx_sub_r9v:
